; ModuleID = 'test.cpp'
source_filename = "test.cpp"
target datalayout = "e-m:e-p270:32:32-p271:32:32-p272:64:64-i64:64-i128:128-f80:128-n8:16:32:64-S128"
target triple = "x86_64-unknown-linux-gnu"

%"class.std::__1::basic_string" = type { %"union.std::__1::basic_string<char>::__rep" }
%"union.std::__1::basic_string<char>::__rep" = type { %"struct.std::__1::basic_string<char>::__long" }
%"struct.std::__1::basic_string<char>::__long" = type { %struct.anon.0, i64, ptr }
%struct.anon.0 = type { i64 }
%"class.std::__1::basic_ostream" = type { ptr, %"class.std::__1::basic_ios.base" }
%"class.std::__1::basic_ios.base" = type <{ %"class.std::__1::ios_base", ptr, %"struct.std::__1::_SentinelValueFill" }>
%"class.std::__1::ios_base" = type { ptr, i32, i64, i64, i32, i32, ptr, ptr, ptr, ptr, i64, i64, ptr, i64, i64, ptr, i64, i64 }
%"struct.std::__1::_SentinelValueFill" = type { i32 }
%"class.std::__1::locale::id" = type <{ %"struct.std::__1::once_flag", i32, [4 x i8] }>
%"struct.std::__1::once_flag" = type { i64 }
%"class.std::__1::basic_ostringstream" = type { %"class.std::__1::basic_ostream.base", %"class.std::__1::basic_stringbuf", %"class.std::__1::basic_ios.base" }
%"class.std::__1::basic_ostream.base" = type { ptr }
%"class.std::__1::basic_stringbuf" = type <{ %"class.std::__1::basic_streambuf", %"class.std::__1::basic_string", ptr, i32, [4 x i8] }>
%"class.std::__1::basic_streambuf" = type { ptr, %"class.std::__1::locale", ptr, ptr, ptr, ptr, ptr, ptr }
%"class.std::__1::locale" = type { ptr }
%"class.std::__1::unique_ptr" = type { ptr }
%"struct.std::__1::integral_constant.20" = type { i8 }
%"class.std::__1::vector" = type { ptr, ptr, ptr }
%class.anon.21 = type { i8 }
%class.anon = type { ptr }
%"class.std::__1::function" = type { %"class.std::__1::__function::__value_func" }
%"class.std::__1::__function::__value_func" = type { %"union.std::__1::aligned_storage<24>::type", ptr, [8 x i8] }
%"union.std::__1::aligned_storage<24>::type" = type { [32 x i8] }
%class.anon.1 = type { ptr }
%class.anon.2 = type { ptr }
%class.anon.3 = type { ptr }
%class.anon.4 = type { ptr }
%class.anon.5 = type { ptr }
%class.anon.6 = type { ptr }
%class.anon.7 = type { ptr }
%class.anon.8 = type { ptr }
%class.anon.9 = type { ptr }
%class.anon.10 = type { ptr }
%"class.std::__1::basic_ostream<char>::sentry" = type { i8, ptr }
%"class.std::__1::ostreambuf_iterator" = type { ptr }
%"class.std::__1::basic_ios" = type <{ %"class.std::__1::ios_base", ptr, %"struct.std::__1::_SentinelValueFill", [4 x i8] }>
%"struct.std::__1::basic_string<char>::__short" = type { %struct.anon, [23 x i8] }
%struct.anon = type { i8 }
%"class.std::__1::vector<int>::__destroy_vector" = type { ptr }
%"struct.std::__1::vector<int>::_ConstructTransaction" = type { ptr, ptr, ptr }
%"struct.std::__1::__split_buffer" = type { ptr, ptr, ptr, ptr, ptr }
%"struct.std::__1::__allocation_result" = type { ptr, i64 }
%"struct.std::__1::__less" = type { i8 }
%"struct.std::__1::integral_constant" = type { i8 }
%"class.std::__1::allocator.22" = type { i8 }
%"class.std::__1::allocator.25" = type { i8 }
%"class.std::__1::__function::__func" = type { %"class.std::__1::__function::__base", %"class.std::__1::__function::__alloc_func" }
%"class.std::__1::__function::__base" = type { ptr }
%"class.std::__1::__function::__alloc_func" = type { %class.anon.1 }
%"class.std::__1::unique_ptr.30" = type { ptr, %"class.std::__1::__allocator_destructor" }
%"class.std::__1::__allocator_destructor" = type { ptr, i64 }
%"class.std::type_info" = type { ptr, ptr }
%"class.std::__1::allocator.33" = type { i8 }
%"class.std::__1::allocator.36" = type { i8 }
%"class.std::__1::__function::__func.39" = type { %"class.std::__1::__function::__base", %"class.std::__1::__function::__alloc_func.40" }
%"class.std::__1::__function::__alloc_func.40" = type { %class.anon.2 }
%"class.std::__1::unique_ptr.43" = type { ptr, %"class.std::__1::__allocator_destructor.44" }
%"class.std::__1::__allocator_destructor.44" = type { ptr, i64 }
%"class.std::__1::allocator.47" = type { i8 }
%"class.std::__1::allocator.50" = type { i8 }
%"class.std::__1::__function::__func.53" = type { %"class.std::__1::__function::__base", %"class.std::__1::__function::__alloc_func.54" }
%"class.std::__1::__function::__alloc_func.54" = type { %class.anon.3 }
%"class.std::__1::unique_ptr.57" = type { ptr, %"class.std::__1::__allocator_destructor.58" }
%"class.std::__1::__allocator_destructor.58" = type { ptr, i64 }
%"class.std::__1::allocator.61" = type { i8 }
%"class.std::__1::allocator.64" = type { i8 }
%"class.std::__1::__function::__func.67" = type { %"class.std::__1::__function::__base", %"class.std::__1::__function::__alloc_func.68" }
%"class.std::__1::__function::__alloc_func.68" = type { %class.anon.4 }
%"class.std::__1::unique_ptr.71" = type { ptr, %"class.std::__1::__allocator_destructor.72" }
%"class.std::__1::__allocator_destructor.72" = type { ptr, i64 }
%"class.std::__1::allocator.75" = type { i8 }
%"class.std::__1::allocator.78" = type { i8 }
%"class.std::__1::__function::__func.81" = type { %"class.std::__1::__function::__base", %"class.std::__1::__function::__alloc_func.82" }
%"class.std::__1::__function::__alloc_func.82" = type { %class.anon.5 }
%"class.std::__1::unique_ptr.85" = type { ptr, %"class.std::__1::__allocator_destructor.86" }
%"class.std::__1::__allocator_destructor.86" = type { ptr, i64 }
%"class.std::__1::allocator.89" = type { i8 }
%"class.std::__1::allocator.92" = type { i8 }
%"class.std::__1::__function::__func.95" = type { %"class.std::__1::__function::__base", %"class.std::__1::__function::__alloc_func.96" }
%"class.std::__1::__function::__alloc_func.96" = type { %class.anon.6 }
%"class.std::__1::unique_ptr.99" = type { ptr, %"class.std::__1::__allocator_destructor.100" }
%"class.std::__1::__allocator_destructor.100" = type { ptr, i64 }
%"class.std::__1::allocator.103" = type { i8 }
%"class.std::__1::allocator.106" = type { i8 }
%"class.std::__1::__function::__func.109" = type { %"class.std::__1::__function::__base", %"class.std::__1::__function::__alloc_func.110" }
%"class.std::__1::__function::__alloc_func.110" = type { %class.anon.7 }
%"class.std::__1::unique_ptr.113" = type { ptr, %"class.std::__1::__allocator_destructor.114" }
%"class.std::__1::__allocator_destructor.114" = type { ptr, i64 }
%"class.std::__1::allocator.117" = type { i8 }
%"class.std::__1::allocator.120" = type { i8 }
%"class.std::__1::__function::__func.123" = type { %"class.std::__1::__function::__base", %"class.std::__1::__function::__alloc_func.124" }
%"class.std::__1::__function::__alloc_func.124" = type { %class.anon.8 }
%"class.std::__1::unique_ptr.127" = type { ptr, %"class.std::__1::__allocator_destructor.128" }
%"class.std::__1::__allocator_destructor.128" = type { ptr, i64 }
%"class.std::__1::allocator.131" = type { i8 }
%"class.std::__1::allocator.134" = type { i8 }
%"class.std::__1::__function::__func.137" = type { %"class.std::__1::__function::__base", %"class.std::__1::__function::__alloc_func.138" }
%"class.std::__1::__function::__alloc_func.138" = type { %class.anon.9 }
%"class.std::__1::unique_ptr.141" = type { ptr, %"class.std::__1::__allocator_destructor.142" }
%"class.std::__1::__allocator_destructor.142" = type { ptr, i64 }
%"class.std::__1::allocator.145" = type { i8 }
%"class.std::__1::allocator.148" = type { i8 }
%"class.std::__1::__function::__func.151" = type { %"class.std::__1::__function::__base", %"class.std::__1::__function::__alloc_func.152" }
%"class.std::__1::__function::__alloc_func.152" = type { %class.anon.10 }
%"class.std::__1::unique_ptr.155" = type { ptr, %"class.std::__1::__allocator_destructor.156" }
%"class.std::__1::__allocator_destructor.156" = type { ptr, i64 }

$_ZNSt3__112basic_stringIcNS_11char_traitsIcEENS_9allocatorIcEEEC2B8ne210000ILi0EEEPKc = comdat any

$_ZNSt3__1lsB8ne210000IcNS_11char_traitsIcEENS_9allocatorIcEEEERNS_13basic_ostreamIT_T0_EES9_RKNS_12basic_stringIS6_S7_T1_EE = comdat any

$_ZNSt3__1lsB8ne210000INS_11char_traitsIcEEEERNS_13basic_ostreamIcT_EES6_PKc = comdat any

$_ZNSt3__113basic_ostreamIcNS_11char_traitsIcEEElsB8ne210000EPFRS3_S4_E = comdat any

$_ZNSt3__14endlB8ne210000IcNS_11char_traitsIcEEEERNS_13basic_ostreamIT_T0_EES7_ = comdat any

$_ZNKSt3__112basic_stringIcNS_11char_traitsIcEENS_9allocatorIcEEE5emptyB8ne210000Ev = comdat any

$_ZNSt3__119basic_ostringstreamIcNS_11char_traitsIcEENS_9allocatorIcEEEC1B8ne210000Ev = comdat any

$_ZNSt3__112basic_stringIcNS_11char_traitsIcEENS_9allocatorIcEEEaSB8ne210000EPKc = comdat any

$_ZNSt3__111make_uniqueB8ne210000INS_6vectorIiNS_9allocatorIiEEEEJETnNS_9enable_ifIXntsr8is_arrayIT_EE5valueEiE4typeELi0EEENS_10unique_ptrIS6_NS_14default_deleteIS6_EEEEDpOT0_ = comdat any

$_ZNKSt3__110unique_ptrINS_6vectorIiNS_9allocatorIiEEEENS_14default_deleteIS4_EEEptB8ne210000Ev = comdat any

$_ZNSt3__16vectorIiNS_9allocatorIiEEE9push_backB8ne210000ERKi = comdat any

$_ZNSt3__16vectorIiNS_9allocatorIiEEE9push_backB8ne210000EOi = comdat any

$_Z12process_dataIiET_S0_ = comdat any

$_Z12process_dataIdET_S0_ = comdat any

$_ZNSt16invalid_argumentC2B8ne210000EPKc = comdat any

$_ZNSt3__1plB8ne210000IcNS_11char_traitsIcEENS_9allocatorIcEEEENS_12basic_stringIT_T0_T1_EEPKS6_OS9_ = comdat any

$_ZNSt3__112basic_stringIcNS_11char_traitsIcEENS_9allocatorIcEEEaSB8ne210000EOS5_ = comdat any

$_ZN17MyCustomExceptionC2ERKNSt3__112basic_stringIcNS0_11char_traitsIcEENS0_9allocatorIcEEEE = comdat any

$_ZN17MyCustomExceptionD2Ev = comdat any

$__clang_call_terminate = comdat any

$_ZNKSt3__16vectorIiNS_9allocatorIiEEE4sizeB8ne210000Ev = comdat any

$_ZNKSt3__110unique_ptrINS_6vectorIiNS_9allocatorIiEEEENS_14default_deleteIS4_EEEdeB8ne210000Ev = comdat any

$_ZNSt3__16vectorIiNS_9allocatorIiEEEixB8ne210000Em = comdat any

$_ZNKSt3__119basic_ostringstreamIcNS_11char_traitsIcEENS_9allocatorIcEEE3strB8ne210000Ev = comdat any

$_ZNSt3__110unique_ptrINS_6vectorIiNS_9allocatorIiEEEENS_14default_deleteIS4_EEED2B8ne210000Ev = comdat any

$_ZNSt3__119basic_ostringstreamIcNS_11char_traitsIcEENS_9allocatorIcEEED1Ev = comdat any

$_ZNKSt3__112basic_stringIcNS_11char_traitsIcEENS_9allocatorIcEEE6lengthB8ne210000Ev = comdat any

$_ZNSt12length_errorC2B8ne210000ERKNSt3__112basic_stringIcNS0_11char_traitsIcEENS0_9allocatorIcEEEE = comdat any

$_ZNSt3__112basic_stringIcNS_11char_traitsIcEENS_9allocatorIcEEE7replaceB8ne210000EmmRKS5_ = comdat any

$_ZNSt3__112basic_stringIcNS_11char_traitsIcEENS_9allocatorIcEEEC2B8ne210000EOS5_ = comdat any

$_ZNSt14overflow_errorC2B8ne210000ERKNSt3__112basic_stringIcNS0_11char_traitsIcEENS0_9allocatorIcEEEE = comdat any

$_ZN22AnotherCustomExceptionC2ERKNSt3__112basic_stringIcNS0_11char_traitsIcEENS0_9allocatorIcEEEE = comdat any

$_ZN22AnotherCustomExceptionD2Ev = comdat any

$_ZNSt3__18functionIFvvEED2Ev = comdat any

$_ZN17MyCustomExceptionD0Ev = comdat any

$_ZNSt3__119basic_ostringstreamIcNS_11char_traitsIcEENS_9allocatorIcEEED2Ev = comdat any

$_ZTv0_n24_NSt3__119basic_ostringstreamIcNS_11char_traitsIcEENS_9allocatorIcEEED1Ev = comdat any

$_ZNSt3__115basic_stringbufIcNS_11char_traitsIcEENS_9allocatorIcEEED2Ev = comdat any

$_ZN22AnotherCustomExceptionD0Ev = comdat any

$_ZNKSt3__18functionIFvvEEclEv = comdat any

$_ZNKSt3__110__function12__value_funcIFvvEEclB8ne210000Ev = comdat any

$_ZNSt3__125__throw_bad_function_callB8ne210000Ev = comdat any

$_ZNSt3__117bad_function_callC2B8ne210000Ev = comdat any

$_ZNSt9exceptionC2B8ne210000Ev = comdat any

$_ZNSt3__19allocatorIcEC2B8ne210000Ev = comdat any

$_ZNSt3__111char_traitsIcE6lengthB8ne210000EPKc = comdat any

$_ZNSt3__116__non_trivial_ifILb1ENS_9allocatorIcEEEC2B8ne210000Ev = comdat any

$_ZNSt3__118__constexpr_strlenB8ne210000IcEEmPKT_ = comdat any

$_ZNSt3__124__put_character_sequenceB8ne210000IcNS_11char_traitsIcEEEERNS_13basic_ostreamIT_T0_EES7_PKS4_m = comdat any

$_ZNKSt3__112basic_stringIcNS_11char_traitsIcEENS_9allocatorIcEEE4dataB8ne210000Ev = comdat any

$_ZNKSt3__112basic_stringIcNS_11char_traitsIcEENS_9allocatorIcEEE4sizeB8ne210000Ev = comdat any

$_ZNKSt3__113basic_ostreamIcNS_11char_traitsIcEEE6sentrycvbB8ne210000Ev = comdat any

$_ZNSt3__116__pad_and_outputB8ne210000IcNS_11char_traitsIcEEEENS_19ostreambuf_iteratorIT_T0_EES6_PKS4_S8_S8_RNS_8ios_baseES4_ = comdat any

$_ZNSt3__119ostreambuf_iteratorIcNS_11char_traitsIcEEEC2B8ne210000ERNS_13basic_ostreamIcS2_EE = comdat any

$_ZNKSt3__18ios_base5flagsB8ne210000Ev = comdat any

$_ZNKSt3__19basic_iosIcNS_11char_traitsIcEEE4fillB8ne210000Ev = comdat any

$_ZNKSt3__119ostreambuf_iteratorIcNS_11char_traitsIcEEE6failedB8ne210000Ev = comdat any

$_ZNSt3__19basic_iosIcNS_11char_traitsIcEEE8setstateB8ne210000Ej = comdat any

$_ZNKSt3__18ios_base5widthB8ne210000Ev = comdat any

$_ZNSt3__115basic_streambufIcNS_11char_traitsIcEEE5sputnB8ne210000EPKcl = comdat any

$_ZNSt3__112basic_stringIcNS_11char_traitsIcEENS_9allocatorIcEEEC2B8ne210000Emc = comdat any

$_ZNSt3__112basic_stringIcNS_11char_traitsIcEENS_9allocatorIcEEE4dataB8ne210000Ev = comdat any

$_ZNSt3__18ios_base5widthB8ne210000El = comdat any

$_ZNSt3__112__to_addressB8ne210000IcEEPT_S2_ = comdat any

$_ZNSt3__112basic_stringIcNS_11char_traitsIcEENS_9allocatorIcEEE13__get_pointerB8ne210000Ev = comdat any

$_ZNKSt3__112basic_stringIcNS_11char_traitsIcEENS_9allocatorIcEEE9__is_longB8ne210000Ev = comdat any

$_ZNSt3__112basic_stringIcNS_11char_traitsIcEENS_9allocatorIcEEE18__get_long_pointerB8ne210000Ev = comdat any

$_ZNSt3__112basic_stringIcNS_11char_traitsIcEENS_9allocatorIcEEE19__get_short_pointerB8ne210000Ev = comdat any

$_ZNSt3__114pointer_traitsIPcE10pointer_toB8ne210000ERc = comdat any

$_ZNKSt3__19basic_iosIcNS_11char_traitsIcEEE5rdbufB8ne210000Ev = comdat any

$_ZNKSt3__18ios_base5rdbufB8ne210000Ev = comdat any

$_ZNKSt3__118_SentinelValueFillINS_11char_traitsIcEEE8__is_setB8ne210000Ev = comdat any

$_ZNKSt3__19basic_iosIcNS_11char_traitsIcEEE5widenB8ne210000Ec = comdat any

$_ZNSt3__118_SentinelValueFillINS_11char_traitsIcEEEaSB8ne210000Ei = comdat any

$_ZNKSt3__118_SentinelValueFillINS_11char_traitsIcEEE5__getB8ne210000Ev = comdat any

$_ZNSt3__111char_traitsIcE3eofB8ne210000Ev = comdat any

$_ZNSt3__19use_facetB8ne210000INS_5ctypeIcEEEERKT_RKNS_6localeE = comdat any

$_ZNKSt3__15ctypeIcE5widenB8ne210000Ec = comdat any

$_ZNSt3__18ios_base8setstateB8ne210000Ej = comdat any

$_ZNSt3__112__to_addressB8ne210000IKcEEPT_S3_ = comdat any

$_ZNKSt3__112basic_stringIcNS_11char_traitsIcEENS_9allocatorIcEEE13__get_pointerB8ne210000Ev = comdat any

$_ZNKSt3__112basic_stringIcNS_11char_traitsIcEENS_9allocatorIcEEE18__get_long_pointerB8ne210000Ev = comdat any

$_ZNKSt3__112basic_stringIcNS_11char_traitsIcEENS_9allocatorIcEEE19__get_short_pointerB8ne210000Ev = comdat any

$_ZNSt3__114pointer_traitsIPKcE10pointer_toB8ne210000ERS1_ = comdat any

$_ZNKSt3__112basic_stringIcNS_11char_traitsIcEENS_9allocatorIcEEE15__get_long_sizeB8ne210000Ev = comdat any

$_ZNKSt3__112basic_stringIcNS_11char_traitsIcEENS_9allocatorIcEEE16__get_short_sizeB8ne210000Ev = comdat any

$_ZNSt3__19basic_iosIcNS_11char_traitsIcEEEC2B8ne210000Ev = comdat any

$_ZNSt3__113basic_ostreamIcNS_11char_traitsIcEEEC2B8ne210000EPNS_15basic_streambufIcS2_EE = comdat any

$_ZNSt3__115basic_stringbufIcNS_11char_traitsIcEENS_9allocatorIcEEEC2B8ne210000Ej = comdat any

$_ZNSt3__18ios_baseC2B8ne210000Ev = comdat any

$_ZNSt3__19basic_iosIcNS_11char_traitsIcEEE4initB8ne210000EPNS_15basic_streambufIcS2_EE = comdat any

$_ZNSt3__118_SentinelValueFillINS_11char_traitsIcEEE6__initB8ne210000Ev = comdat any

$_ZNSt3__112basic_stringIcNS_11char_traitsIcEENS_9allocatorIcEEEC2B8ne210000Ev = comdat any

$_ZNSt3__115basic_stringbufIcNS_11char_traitsIcEENS_9allocatorIcEEE15__init_buf_ptrsB8ne210000Ev = comdat any

$_ZNKSt3__112basic_stringIcNS_11char_traitsIcEENS_9allocatorIcEEE14__annotate_newB8ne210000Em = comdat any

$_ZNKSt3__112basic_stringIcNS_11char_traitsIcEENS_9allocatorIcEEE31__annotate_contiguous_containerB8ne210000EPKvS7_ = comdat any

$_ZNKSt3__112basic_stringIcNS_11char_traitsIcEENS_9allocatorIcEEE8capacityB8ne210000Ev = comdat any

$_ZNKSt3__112basic_stringIcNS_11char_traitsIcEENS_9allocatorIcEEE14__get_long_capB8ne210000Ev = comdat any

$_ZNSt3__115basic_streambufIcNS_11char_traitsIcEEE4setgB8ne210000EPcS4_S4_ = comdat any

$_ZNSt3__112basic_stringIcNS_11char_traitsIcEENS_9allocatorIcEEE6resizeB8ne210000Em = comdat any

$_ZNSt3__115basic_streambufIcNS_11char_traitsIcEEE4setpB8ne210000EPcS4_ = comdat any

$_ZNSt3__115basic_streambufIcNS_11char_traitsIcEEE5pbumpB8ne210000Ei = comdat any

$_ZNSt3__16vectorIiNS_9allocatorIiEEEC2B8ne210000Ev = comdat any

$_ZNSt3__110unique_ptrINS_6vectorIiNS_9allocatorIiEEEENS_14default_deleteIS4_EEEC2B8ne210000ILb1EvEEPS4_ = comdat any

$_ZNSt3__19allocatorIiEC2B8ne210000Ev = comdat any

$_ZNSt3__116__non_trivial_ifILb1ENS_9allocatorIiEEEC2B8ne210000Ev = comdat any

$_ZNSt3__110unique_ptrINS_6vectorIiNS_9allocatorIiEEEENS_14default_deleteIS4_EEE5resetB8ne210000EPS4_ = comdat any

$_ZNKSt3__114default_deleteINS_6vectorIiNS_9allocatorIiEEEEEclB8ne210000EPS4_ = comdat any

$_ZNSt3__16vectorIiNS_9allocatorIiEEED2B8ne210000Ev = comdat any

$_ZNSt3__16vectorIiNS_9allocatorIiEEE16__destroy_vectorC2B8ne210000ERS3_ = comdat any

$_ZNSt3__16vectorIiNS_9allocatorIiEEE16__destroy_vectorclB8ne210000Ev = comdat any

$_ZNSt3__16vectorIiNS_9allocatorIiEEE5clearB8ne210000Ev = comdat any

$_ZNKSt3__16vectorIiNS_9allocatorIiEEE17__annotate_deleteB8ne210000Ev = comdat any

$_ZNSt3__116allocator_traitsINS_9allocatorIiEEE10deallocateB8ne210000ERS2_Pim = comdat any

$_ZNKSt3__16vectorIiNS_9allocatorIiEEE8capacityB8ne210000Ev = comdat any

$_ZNSt3__16vectorIiNS_9allocatorIiEEE22__base_destruct_at_endB8ne210000EPi = comdat any

$_ZNKSt3__16vectorIiNS_9allocatorIiEEE17__annotate_shrinkB8ne210000Em = comdat any

$_ZNSt3__116allocator_traitsINS_9allocatorIiEEE7destroyB8ne210000IiTnNS_9enable_ifIX15__has_destroy_vIS2_PT_EEiE4typeELi0EEEvRS2_S7_ = comdat any

$_ZNSt3__112__to_addressB8ne210000IiEEPT_S2_ = comdat any

$_ZNSt3__19allocatorIiE7destroyB8ne210000EPi = comdat any

$_ZNKSt3__16vectorIiNS_9allocatorIiEEE31__annotate_contiguous_containerB8ne210000EPKvS5_ = comdat any

$_ZNKSt3__16vectorIiNS_9allocatorIiEEE4dataB8ne210000Ev = comdat any

$_ZNSt3__131__annotate_contiguous_containerB8ne210000INS_9allocatorIiEEEEvPKvS4_S4_S4_ = comdat any

$_ZNSt3__19allocatorIiE10deallocateB8ne210000EPim = comdat any

$_ZNSt3__119__libcpp_deallocateB8ne210000IiEEvPNS_15__type_identityIT_E4typeENS_15__element_countEm = comdat any

$_ZNSt3__124__is_overaligned_for_newB8ne210000Em = comdat any

$_ZNSt3__124__libcpp_operator_deleteB8ne210000IJPimSt11align_val_tEEEvDpT_ = comdat any

$_ZNSt3__124__libcpp_operator_deleteB8ne210000IJPimEEEvDpT_ = comdat any

$_ZNSt3__16vectorIiNS_9allocatorIiEEE12emplace_backIJRKiEEERiDpOT_ = comdat any

$_ZNSt3__16vectorIiNS_9allocatorIiEEE30__emplace_back_assume_capacityB8ne210000IJRKiEEEvDpOT_ = comdat any

$_ZNSt3__16vectorIiNS_9allocatorIiEEE24__emplace_back_slow_pathIJRKiEEEPiDpOT_ = comdat any

$_ZNSt3__16vectorIiNS_9allocatorIiEEE21_ConstructTransactionC2B8ne210000ERS3_m = comdat any

$_ZNSt3__116allocator_traitsINS_9allocatorIiEEE9constructB8ne210000IiJRKiETnNS_9enable_ifIX17__has_construct_vIS2_PT_DpT0_EEiE4typeELi0EEEvRS2_S9_DpOSA_ = comdat any

$_ZNSt3__16vectorIiNS_9allocatorIiEEE21_ConstructTransactionD2B8ne210000Ev = comdat any

$_ZNKSt3__16vectorIiNS_9allocatorIiEEE19__annotate_increaseB8ne210000Em = comdat any

$_ZNSt3__19allocatorIiE9constructB8ne210000IiJRKiEEEvPT_DpOT0_ = comdat any

$_ZNKSt3__16vectorIiNS_9allocatorIiEEE11__recommendB8ne210000Em = comdat any

$_ZNSt3__114__split_bufferIiRNS_9allocatorIiEEEC2EmmS3_ = comdat any

$_ZNSt3__16vectorIiNS_9allocatorIiEEE26__swap_out_circular_bufferERNS_14__split_bufferIiRS2_EE = comdat any

$_ZNSt3__114__split_bufferIiRNS_9allocatorIiEEED2Ev = comdat any

$_ZNKSt3__16vectorIiNS_9allocatorIiEEE8max_sizeB8ne210000Ev = comdat any

$_ZNSt3__16vectorIiNS_9allocatorIiEEE20__throw_length_errorB8ne210000Ev = comdat any

$_ZNSt3__13maxB8ne210000ImEERKT_S3_S3_ = comdat any

$_ZNSt3__13minB8ne210000ImEERKT_S3_S3_ = comdat any

$_ZNSt3__116allocator_traitsINS_9allocatorIiEEE8max_sizeB8ne210000IS2_TnNS_9enable_ifIX16__has_max_size_vIKT_EEiE4typeELi0EEEmRKS2_ = comdat any

$_ZNSt3__114numeric_limitsIlE3maxB8ne210000Ev = comdat any

$_ZNSt3__13minB8ne210000ImNS_6__lessIvvEEEERKT_S5_S5_T0_ = comdat any

$_ZNKSt3__16__lessIvvEclB8ne210000ImmEEbRKT_RKT0_ = comdat any

$_ZNKSt3__19allocatorIiE8max_sizeB8ne210000Ev = comdat any

$_ZNSt3__123__libcpp_numeric_limitsIlLb1EE3maxB8ne210000Ev = comdat any

$_ZNSt3__120__throw_length_errorB8ne210000EPKc = comdat any

$_ZNSt12length_errorC2B8ne210000EPKc = comdat any

$_ZNSt3__13maxB8ne210000ImNS_6__lessIvvEEEERKT_S5_S5_T0_ = comdat any

$_ZNSt3__119__allocate_at_leastB8ne210000INS_9allocatorIiEEEENS_19__allocation_resultINS_16allocator_traitsIT_E7pointerEEERS5_m = comdat any

$_ZNSt3__19allocatorIiE8allocateB8ne210000Em = comdat any

$_ZSt28__throw_bad_array_new_lengthB8ne210000v = comdat any

$_ZNSt3__117__libcpp_allocateB8ne210000IiEEPT_NS_15__element_countEm = comdat any

$_ZNSt3__121__libcpp_operator_newB8ne210000IJmSt11align_val_tEEEPvDpT_ = comdat any

$_ZNSt3__121__libcpp_operator_newB8ne210000IJmEEEPvDpT_ = comdat any

$_ZNSt3__134__uninitialized_allocator_relocateB8ne210000INS_9allocatorIiEEPiEEvRT_T0_S6_S6_ = comdat any

$_ZNSt3__14swapB8ne210000IPiEENS_9enable_ifIXaasr21is_move_constructibleIT_EE5valuesr18is_move_assignableIS3_EE5valueEvE4typeERS3_S6_ = comdat any

$_ZNKSt3__16vectorIiNS_9allocatorIiEEE14__annotate_newB8ne210000Em = comdat any

$_ZNSt3__114__split_bufferIiRNS_9allocatorIiEEE5clearB8ne210000Ev = comdat any

$_ZNKSt3__114__split_bufferIiRNS_9allocatorIiEEE8capacityB8ne210000Ev = comdat any

$_ZNSt3__114__split_bufferIiRNS_9allocatorIiEEE17__destruct_at_endB8ne210000EPi = comdat any

$_ZNSt3__114__split_bufferIiRNS_9allocatorIiEEE17__destruct_at_endB8ne210000EPiNS_17integral_constantIbLb0EEE = comdat any

$_ZNSt3__16vectorIiNS_9allocatorIiEEE12emplace_backIJiEEERiDpOT_ = comdat any

$_ZNSt3__16vectorIiNS_9allocatorIiEEE30__emplace_back_assume_capacityB8ne210000IJiEEEvDpOT_ = comdat any

$_ZNSt3__16vectorIiNS_9allocatorIiEEE24__emplace_back_slow_pathIJiEEEPiDpOT_ = comdat any

$_ZNSt3__116allocator_traitsINS_9allocatorIiEEE9constructB8ne210000IiJiETnNS_9enable_ifIX17__has_construct_vIS2_PT_DpT0_EEiE4typeELi0EEEvRS2_S7_DpOS8_ = comdat any

$_ZNSt3__19allocatorIiE9constructB8ne210000IiJiEEEvPT_DpOT0_ = comdat any

$_ZNSt3__112basic_stringIcNS_11char_traitsIcEENS_9allocatorIcEEE13__move_assignB8ne210000ERS5_NS_17integral_constantIbLb1EEE = comdat any

$_ZNKSt3__112basic_stringIcNS_11char_traitsIcEENS_9allocatorIcEEE17__annotate_deleteB8ne210000Ev = comdat any

$_ZNSt3__116allocator_traitsINS_9allocatorIcEEE10deallocateB8ne210000ERS2_Pcm = comdat any

$_ZNSt3__112basic_stringIcNS_11char_traitsIcEENS_9allocatorIcEEE19__move_assign_allocB8ne210000ERS5_ = comdat any

$_ZNSt3__112basic_stringIcNS_11char_traitsIcEENS_9allocatorIcEEE16__set_short_sizeB8ne210000Em = comdat any

$_ZNSt3__111char_traitsIcE6assignB8ne210000ERcRKc = comdat any

$_ZNKSt3__112basic_stringIcNS_11char_traitsIcEENS_9allocatorIcEEE17__annotate_shrinkB8ne210000Em = comdat any

$_ZNSt3__19allocatorIcE10deallocateB8ne210000EPcm = comdat any

$_ZNSt3__119__libcpp_deallocateB8ne210000IcEEvPNS_15__type_identityIT_E4typeENS_15__element_countEm = comdat any

$_ZNSt3__124__libcpp_operator_deleteB8ne210000IJPcmSt11align_val_tEEEvDpT_ = comdat any

$_ZNSt3__124__libcpp_operator_deleteB8ne210000IJPcmEEEvDpT_ = comdat any

$_ZNSt3__112basic_stringIcNS_11char_traitsIcEENS_9allocatorIcEEE19__move_assign_allocB8ne210000ERS5_NS_17integral_constantIbLb1EEE = comdat any

$_ZZNSt3__112basic_stringIcNS_11char_traitsIcEENS_9allocatorIcEEEC1B8ne210000EOS5_ENKUlRS5_E_clES7_ = comdat any

$_ZNSt3__110__function6__baseIFvvEEC2B8ne210000Ev = comdat any

$_ZNSt3__110__function6__baseIFvvEED2Ev = comdat any

$_ZNSt3__110__function6__baseIFvvEED0Ev = comdat any

$_ZNSt3__1eqB8ne210000IcNS_11char_traitsIcEENS_9allocatorIcEEEEbRKNS_12basic_stringIT_T0_T1_EESB_ = comdat any

$_ZNSt3__111char_traitsIcE7compareB8ne210000EPKcS3_m = comdat any

$_ZNKSt9type_infoeqB8ne210000ERKS_ = comdat any

$_ZNSt3__110__function12__value_funcIFvvEED2B8ne210000Ev = comdat any

$_ZNSt3__1plB8ne210000IcNS_11char_traitsIcEENS_9allocatorIcEEEENS_12basic_stringIT_T0_T1_EEOS9_RKS9_ = comdat any

$_ZNSt3__1plB8ne210000IcNS_11char_traitsIcEENS_9allocatorIcEEEENS_12basic_stringIT_T0_T1_EEOS9_PKS6_ = comdat any

$_ZNSt3__112basic_stringIcNS_11char_traitsIcEENS_9allocatorIcEEE6appendB8ne210000ERKS5_ = comdat any

$_ZTI17MyCustomException = comdat any

$_ZTS17MyCustomException = comdat any

$_ZTI22AnotherCustomException = comdat any

$_ZTS22AnotherCustomException = comdat any

$_ZTV17MyCustomException = comdat any

$_ZTV22AnotherCustomException = comdat any

$_ZTINSt3__110__function6__baseIFvvEEE = comdat any

$_ZTSNSt3__110__function6__baseIFvvEEE = comdat any

$_ZTVNSt3__110__function6__baseIFvvEEE = comdat any

@_ZL11RESET_COLOR = internal global %"class.std::__1::basic_string" zeroinitializer, align 8, !dbg !0
@.str = private unnamed_addr constant [5 x i8] c"\1B[0m\00", align 1, !dbg !4362
@__dso_handle = external hidden global i8
@_ZL11GREEN_COLOR = internal global %"class.std::__1::basic_string" zeroinitializer, align 8, !dbg !4372
@.str.2 = private unnamed_addr constant [6 x i8] c"\1B[32m\00", align 1, !dbg !4367
@_ZL9RED_COLOR = internal global %"class.std::__1::basic_string" zeroinitializer, align 8, !dbg !4376
@.str.4 = private unnamed_addr constant [6 x i8] c"\1B[31m\00", align 1, !dbg !4374
@_ZL12YELLOW_COLOR = internal global %"class.std::__1::basic_string" zeroinitializer, align 8, !dbg !4380
@.str.6 = private unnamed_addr constant [6 x i8] c"\1B[33m\00", align 1, !dbg !4378
@_ZNSt3__14coutE = external global %"class.std::__1::basic_ostream", align 8
@.str.7 = private unnamed_addr constant [8 x i8] c"[PASS] \00", align 1, !dbg !4382
@.str.8 = private unnamed_addr constant [8 x i8] c"[FAIL] \00", align 1, !dbg !4387
@.str.9 = private unnamed_addr constant [13 x i8] c"  Expected: \00", align 1, !dbg !4389
@.str.10 = private unnamed_addr constant [13 x i8] c"  Actual  : \00", align 1, !dbg !4394
@.str.11 = private unnamed_addr constant [54 x i8] c"No specific exception expected or caught as expected.\00", align 1, !dbg !4396
@_ZTI17MyCustomException = linkonce_odr dso_local constant { ptr, ptr, ptr } { ptr getelementptr inbounds (ptr, ptr @_ZTVN10__cxxabiv120__si_class_type_infoE, i64 2), ptr @_ZTS17MyCustomException, ptr @_ZTISt13runtime_error }, comdat, align 8
@_ZTVN10__cxxabiv120__si_class_type_infoE = external global [0 x ptr]
@_ZTS17MyCustomException = linkonce_odr dso_local constant [20 x i8] c"17MyCustomException\00", comdat, align 1
@_ZTISt13runtime_error = external constant ptr
@_ZTISt9exception = external constant ptr
@_ZTI22AnotherCustomException = linkonce_odr dso_local constant { ptr, ptr, ptr } { ptr getelementptr inbounds (ptr, ptr @_ZTVN10__cxxabiv120__si_class_type_infoE, i64 2), ptr @_ZTS22AnotherCustomException, ptr @_ZTISt11logic_error }, comdat, align 8
@_ZTS22AnotherCustomException = linkonce_odr dso_local constant [25 x i8] c"22AnotherCustomException\00", comdat, align 1
@_ZTISt11logic_error = external constant ptr
@_ZTISt16invalid_argument = external constant ptr
@.str.12 = private unnamed_addr constant [29 x i8] c"String value cannot be empty\00", align 1, !dbg !4401
@.str.13 = private unnamed_addr constant [34 x i8] c"Re-thrown from invalid_argument: \00", align 1, !dbg !4406
@.str.14 = private unnamed_addr constant [1 x i8] zeroinitializer, align 1, !dbg !4411
@.str.15 = private unnamed_addr constant [2 x i8] c" \00", align 1, !dbg !4416
@.str.16 = private unnamed_addr constant [23 x i8] c"String s1 is too short\00", align 1, !dbg !4421
@_ZTISt12length_error = external constant ptr
@_ZTISt12out_of_range = external constant ptr
@.str.17 = private unnamed_addr constant [35 x i8] c"Found 'X' in s2 during replacement\00", align 1, !dbg !4424
@.str.18 = private unnamed_addr constant [16 x i8] c"INNER_X_CAUGHT_\00", align 1, !dbg !4429
@.str.19 = private unnamed_addr constant [11 x i8] c"OOR_CAUGHT\00", align 1, !dbg !4434
@.str.20 = private unnamed_addr constant [35 x i8] c"Division by zero in risky_division\00", align 1, !dbg !4439
@_ZTISt14overflow_error = external constant ptr
@.str.21 = private unnamed_addr constant [27 x i8] c"Unlucky number 13 detected\00", align 1, !dbg !4441
@.str.22 = private unnamed_addr constant [56 x i8] c"Test Case 1: advanced_feature_tester - Normal execution\00", align 1, !dbg !4446
@.str.23 = private unnamed_addr constant [76 x i8] c"Test Case 2: advanced_feature_tester - Trigger inner AnotherCustomException\00", align 1, !dbg !4451
@.str.24 = private unnamed_addr constant [86 x i8] c"Test Case 3: advanced_feature_tester - Trigger inner std::invalid_argument, re-thrown\00", align 1, !dbg !4456
@.str.25 = private unnamed_addr constant [89 x i8] c"Test Case 4: advanced_feature_tester - Trigger outer MyCustomException from process_data\00", align 1, !dbg !4461
@.str.26 = private unnamed_addr constant [39 x i8] c"Test Case 5: String manipulator normal\00", align 1, !dbg !4466
@.str.27 = private unnamed_addr constant [45 x i8] c"Test Case 6: String manipulator length_error\00", align 1, !dbg !4471
@.str.28 = private unnamed_addr constant [56 x i8] c"Test Case 7: String manipulator inner MyCustomException\00", align 1, !dbg !4476
@.str.29 = private unnamed_addr constant [35 x i8] c"Test Case 8: Risky division normal\00", align 1, !dbg !4478
@.str.30 = private unnamed_addr constant [36 x i8] c"Test Case 9: Risky division by zero\00", align 1, !dbg !4480
@.str.31 = private unnamed_addr constant [44 x i8] c"Test Case 10: Risky division unlucky number\00", align 1, !dbg !4485
@.str.32 = private unnamed_addr constant [25 x i8] c"===== Test Summary =====\00", align 1, !dbg !4490
@.str.33 = private unnamed_addr constant [14 x i8] c"Total tests: \00", align 1, !dbg !4495
@.str.34 = private unnamed_addr constant [15 x i8] c"Passed tests: \00", align 1, !dbg !4500
@.str.35 = private unnamed_addr constant [18 x i8] c"All tests passed!\00", align 1, !dbg !4505
@.str.36 = private unnamed_addr constant [15 x i8] c" tests failed.\00", align 1, !dbg !4510
@_ZTVSt16invalid_argument = external unnamed_addr constant { [5 x ptr] }, align 8
@_ZTV17MyCustomException = linkonce_odr dso_local unnamed_addr constant { [5 x ptr] } { [5 x ptr] [ptr null, ptr @_ZTI17MyCustomException, ptr @_ZN17MyCustomExceptionD2Ev, ptr @_ZN17MyCustomExceptionD0Ev, ptr @_ZNKSt13runtime_error4whatEv] }, comdat, align 8, !dbg !4512
@_ZTVNSt3__119basic_ostringstreamIcNS_11char_traitsIcEENS_9allocatorIcEEEE = external unnamed_addr constant { [5 x ptr], [5 x ptr] }, align 8
@_ZTTNSt3__119basic_ostringstreamIcNS_11char_traitsIcEENS_9allocatorIcEEEE = external unnamed_addr constant [4 x ptr], align 8
@_ZTVNSt3__115basic_stringbufIcNS_11char_traitsIcEENS_9allocatorIcEEEE = external unnamed_addr constant { [16 x ptr] }, align 8
@_ZTVSt12length_error = external unnamed_addr constant { [5 x ptr] }, align 8
@_ZTVSt14overflow_error = external unnamed_addr constant { [5 x ptr] }, align 8
@_ZTV22AnotherCustomException = linkonce_odr dso_local unnamed_addr constant { [5 x ptr] } { [5 x ptr] [ptr null, ptr @_ZTI22AnotherCustomException, ptr @_ZN22AnotherCustomExceptionD2Ev, ptr @_ZN22AnotherCustomExceptionD0Ev, ptr @_ZNKSt11logic_error4whatEv] }, comdat, align 8, !dbg !4515
@.str.37 = private unnamed_addr constant [21 x i8] c"===== Running Test: \00", align 1, !dbg !4518
@.str.38 = private unnamed_addr constant [7 x i8] c" =====\00", align 1, !dbg !4523
@_ZTINSt3__117bad_function_callE = external constant ptr
@_ZTVNSt3__117bad_function_callE = external unnamed_addr constant { [5 x ptr] }, align 8
@_ZTVSt9exception = external unnamed_addr constant { [5 x ptr] }, align 8
@_ZNSt3__15ctypeIcE2idE = external global %"class.std::__1::locale::id", align 8
@_ZTVNSt3__19basic_iosIcNS_11char_traitsIcEEEE = external unnamed_addr constant { [4 x ptr] }, align 8
@_ZTVNSt3__18ios_baseE = external unnamed_addr constant { [4 x ptr] }, align 8
@.str.39 = private unnamed_addr constant [7 x i8] c"vector\00", align 1, !dbg !4528
@_ZTISt20bad_array_new_length = external constant ptr
@.str.40 = private unnamed_addr constant [27 x i8] c"Negative integer processed\00", align 1, !dbg !4530
@.str.41 = private unnamed_addr constant [22 x i8] c"Zero double processed\00", align 1, !dbg !4532
@"_ZTVNSt3__110__function6__funcIZ4mainE3$_0NS_9allocatorIS2_EEFvvEEE" = internal unnamed_addr constant { [11 x ptr] } { [11 x ptr] [ptr null, ptr @"_ZTINSt3__110__function6__funcIZ4mainE3$_0NS_9allocatorIS2_EEFvvEEE", ptr @"_ZNSt3__110__function6__funcIZ4mainE3$_0NS_9allocatorIS2_EEFvvEED2Ev", ptr @"_ZNSt3__110__function6__funcIZ4mainE3$_0NS_9allocatorIS2_EEFvvEED0Ev", ptr @"_ZNKSt3__110__function6__funcIZ4mainE3$_0NS_9allocatorIS2_EEFvvEE7__cloneEv", ptr @"_ZNKSt3__110__function6__funcIZ4mainE3$_0NS_9allocatorIS2_EEFvvEE7__cloneEPNS0_6__baseIS5_EE", ptr @"_ZNSt3__110__function6__funcIZ4mainE3$_0NS_9allocatorIS2_EEFvvEE7destroyEv", ptr @"_ZNSt3__110__function6__funcIZ4mainE3$_0NS_9allocatorIS2_EEFvvEE18destroy_deallocateEv", ptr @"_ZNSt3__110__function6__funcIZ4mainE3$_0NS_9allocatorIS2_EEFvvEEclEv", ptr @"_ZNKSt3__110__function6__funcIZ4mainE3$_0NS_9allocatorIS2_EEFvvEE6targetERKSt9type_info", ptr @"_ZNKSt3__110__function6__funcIZ4mainE3$_0NS_9allocatorIS2_EEFvvEE11target_typeEv"] }, align 8, !dbg !4537
@"_ZTINSt3__110__function6__funcIZ4mainE3$_0NS_9allocatorIS2_EEFvvEEE" = internal constant { ptr, ptr, ptr } { ptr getelementptr inbounds (ptr, ptr @_ZTVN10__cxxabiv120__si_class_type_infoE, i64 2), ptr @"_ZTSNSt3__110__function6__funcIZ4mainE3$_0NS_9allocatorIS2_EEFvvEEE", ptr @_ZTINSt3__110__function6__baseIFvvEEE }, align 8
@"_ZTSNSt3__110__function6__funcIZ4mainE3$_0NS_9allocatorIS2_EEFvvEEE" = internal constant [64 x i8] c"NSt3__110__function6__funcIZ4mainE3$_0NS_9allocatorIS2_EEFvvEEE\00", align 1
@_ZTINSt3__110__function6__baseIFvvEEE = linkonce_odr dso_local constant { ptr, ptr } { ptr getelementptr inbounds (ptr, ptr @_ZTVN10__cxxabiv117__class_type_infoE, i64 2), ptr @_ZTSNSt3__110__function6__baseIFvvEEE }, comdat, align 8
@_ZTVN10__cxxabiv117__class_type_infoE = external global [0 x ptr]
@_ZTSNSt3__110__function6__baseIFvvEEE = linkonce_odr dso_local constant [34 x i8] c"NSt3__110__function6__baseIFvvEEE\00", comdat, align 1
@_ZTVNSt3__110__function6__baseIFvvEEE = linkonce_odr dso_local unnamed_addr constant { [11 x ptr] } { [11 x ptr] [ptr null, ptr @_ZTINSt3__110__function6__baseIFvvEEE, ptr @_ZNSt3__110__function6__baseIFvvEED2Ev, ptr @_ZNSt3__110__function6__baseIFvvEED0Ev, ptr @__cxa_pure_virtual, ptr @__cxa_pure_virtual, ptr @__cxa_pure_virtual, ptr @__cxa_pure_virtual, ptr @__cxa_pure_virtual, ptr @__cxa_pure_virtual, ptr @__cxa_pure_virtual] }, comdat, align 8, !dbg !4540
@.str.42 = private unnamed_addr constant [6 x i8] c"hello\00", align 1, !dbg !4543
@.str.43 = private unnamed_addr constant [10 x i8] c"10 100 20\00", align 1, !dbg !4545
@.str.44 = private unnamed_addr constant [23 x i8] c"Advanced Tester Normal\00", align 1, !dbg !4550
@"_ZTIZ4mainE3$_0" = internal constant { ptr, ptr } { ptr getelementptr inbounds (ptr, ptr @_ZTVN10__cxxabiv117__class_type_infoE, i64 2), ptr @"_ZTSZ4mainE3$_0" }, align 8
@"_ZTSZ4mainE3$_0" = internal constant [12 x i8] c"Z4mainE3$_0\00", align 1
@"_ZTVNSt3__110__function6__funcIZ4mainE3$_1NS_9allocatorIS2_EEFvvEEE" = internal unnamed_addr constant { [11 x ptr] } { [11 x ptr] [ptr null, ptr @"_ZTINSt3__110__function6__funcIZ4mainE3$_1NS_9allocatorIS2_EEFvvEEE", ptr @"_ZNSt3__110__function6__funcIZ4mainE3$_1NS_9allocatorIS2_EEFvvEED2Ev", ptr @"_ZNSt3__110__function6__funcIZ4mainE3$_1NS_9allocatorIS2_EEFvvEED0Ev", ptr @"_ZNKSt3__110__function6__funcIZ4mainE3$_1NS_9allocatorIS2_EEFvvEE7__cloneEv", ptr @"_ZNKSt3__110__function6__funcIZ4mainE3$_1NS_9allocatorIS2_EEFvvEE7__cloneEPNS0_6__baseIS5_EE", ptr @"_ZNSt3__110__function6__funcIZ4mainE3$_1NS_9allocatorIS2_EEFvvEE7destroyEv", ptr @"_ZNSt3__110__function6__funcIZ4mainE3$_1NS_9allocatorIS2_EEFvvEE18destroy_deallocateEv", ptr @"_ZNSt3__110__function6__funcIZ4mainE3$_1NS_9allocatorIS2_EEFvvEEclEv", ptr @"_ZNKSt3__110__function6__funcIZ4mainE3$_1NS_9allocatorIS2_EEFvvEE6targetERKSt9type_info", ptr @"_ZNKSt3__110__function6__funcIZ4mainE3$_1NS_9allocatorIS2_EEFvvEE11target_typeEv"] }, align 8, !dbg !4552
@"_ZTINSt3__110__function6__funcIZ4mainE3$_1NS_9allocatorIS2_EEFvvEEE" = internal constant { ptr, ptr, ptr } { ptr getelementptr inbounds (ptr, ptr @_ZTVN10__cxxabiv120__si_class_type_infoE, i64 2), ptr @"_ZTSNSt3__110__function6__funcIZ4mainE3$_1NS_9allocatorIS2_EEFvvEEE", ptr @_ZTINSt3__110__function6__baseIFvvEEE }, align 8
@"_ZTSNSt3__110__function6__funcIZ4mainE3$_1NS_9allocatorIS2_EEFvvEEE" = internal constant [64 x i8] c"NSt3__110__function6__funcIZ4mainE3$_1NS_9allocatorIS2_EEFvvEEE\00", align 1
@.str.45 = private unnamed_addr constant [6 x i8] c"world\00", align 1, !dbg !4555
@.str.46 = private unnamed_addr constant [14 x i8] c"20 400 40 777\00", align 1, !dbg !4557
@.str.47 = private unnamed_addr constant [38 x i8] c"Advanced Tester Inner AnotherCustomEx\00", align 1, !dbg !4559
@.str.48 = private unnamed_addr constant [6 x i8] c"vec: \00", align 1, !dbg !4564
@.str.49 = private unnamed_addr constant [9 x i8] c", emsg: \00", align 1, !dbg !4566
@"_ZTIZ4mainE3$_1" = internal constant { ptr, ptr } { ptr getelementptr inbounds (ptr, ptr @_ZTVN10__cxxabiv117__class_type_infoE, i64 2), ptr @"_ZTSZ4mainE3$_1" }, align 8
@"_ZTSZ4mainE3$_1" = internal constant [12 x i8] c"Z4mainE3$_1\00", align 1
@"_ZTVNSt3__110__function6__funcIZ4mainE3$_2NS_9allocatorIS2_EEFvvEEE" = internal unnamed_addr constant { [11 x ptr] } { [11 x ptr] [ptr null, ptr @"_ZTINSt3__110__function6__funcIZ4mainE3$_2NS_9allocatorIS2_EEFvvEEE", ptr @"_ZNSt3__110__function6__funcIZ4mainE3$_2NS_9allocatorIS2_EEFvvEED2Ev", ptr @"_ZNSt3__110__function6__funcIZ4mainE3$_2NS_9allocatorIS2_EEFvvEED0Ev", ptr @"_ZNKSt3__110__function6__funcIZ4mainE3$_2NS_9allocatorIS2_EEFvvEE7__cloneEv", ptr @"_ZNKSt3__110__function6__funcIZ4mainE3$_2NS_9allocatorIS2_EEFvvEE7__cloneEPNS0_6__baseIS5_EE", ptr @"_ZNSt3__110__function6__funcIZ4mainE3$_2NS_9allocatorIS2_EEFvvEE7destroyEv", ptr @"_ZNSt3__110__function6__funcIZ4mainE3$_2NS_9allocatorIS2_EEFvvEE18destroy_deallocateEv", ptr @"_ZNSt3__110__function6__funcIZ4mainE3$_2NS_9allocatorIS2_EEFvvEEclEv", ptr @"_ZNKSt3__110__function6__funcIZ4mainE3$_2NS_9allocatorIS2_EEFvvEE6targetERKSt9type_info", ptr @"_ZNKSt3__110__function6__funcIZ4mainE3$_2NS_9allocatorIS2_EEFvvEE11target_typeEv"] }, align 8, !dbg !4571
@"_ZTINSt3__110__function6__funcIZ4mainE3$_2NS_9allocatorIS2_EEFvvEEE" = internal constant { ptr, ptr, ptr } { ptr getelementptr inbounds (ptr, ptr @_ZTVN10__cxxabiv120__si_class_type_infoE, i64 2), ptr @"_ZTSNSt3__110__function6__funcIZ4mainE3$_2NS_9allocatorIS2_EEFvvEEE", ptr @_ZTINSt3__110__function6__baseIFvvEEE }, align 8
@"_ZTSNSt3__110__function6__funcIZ4mainE3$_2NS_9allocatorIS2_EEFvvEEE" = internal constant [64 x i8] c"NSt3__110__function6__funcIZ4mainE3$_2NS_9allocatorIS2_EEFvvEEE\00", align 1
@.str.50 = private unnamed_addr constant [18 x i8] c"30 900 60 778 888\00", align 1, !dbg !4574
@.str.51 = private unnamed_addr constant [62 x i8] c"Re-thrown from invalid_argument: String value cannot be empty\00", align 1, !dbg !4576
@.str.52 = private unnamed_addr constant [43 x i8] c"Advanced Tester Inner InvalidArg Re-thrown\00", align 1, !dbg !4581
@"_ZTIZ4mainE3$_2" = internal constant { ptr, ptr } { ptr getelementptr inbounds (ptr, ptr @_ZTVN10__cxxabiv117__class_type_infoE, i64 2), ptr @"_ZTSZ4mainE3$_2" }, align 8
@"_ZTSZ4mainE3$_2" = internal constant [12 x i8] c"Z4mainE3$_2\00", align 1
@"_ZTVNSt3__110__function6__funcIZ4mainE3$_3NS_9allocatorIS2_EEFvvEEE" = internal unnamed_addr constant { [11 x ptr] } { [11 x ptr] [ptr null, ptr @"_ZTINSt3__110__function6__funcIZ4mainE3$_3NS_9allocatorIS2_EEFvvEEE", ptr @"_ZNSt3__110__function6__funcIZ4mainE3$_3NS_9allocatorIS2_EEFvvEED2Ev", ptr @"_ZNSt3__110__function6__funcIZ4mainE3$_3NS_9allocatorIS2_EEFvvEED0Ev", ptr @"_ZNKSt3__110__function6__funcIZ4mainE3$_3NS_9allocatorIS2_EEFvvEE7__cloneEv", ptr @"_ZNKSt3__110__function6__funcIZ4mainE3$_3NS_9allocatorIS2_EEFvvEE7__cloneEPNS0_6__baseIS5_EE", ptr @"_ZNSt3__110__function6__funcIZ4mainE3$_3NS_9allocatorIS2_EEFvvEE7destroyEv", ptr @"_ZNSt3__110__function6__funcIZ4mainE3$_3NS_9allocatorIS2_EEFvvEE18destroy_deallocateEv", ptr @"_ZNSt3__110__function6__funcIZ4mainE3$_3NS_9allocatorIS2_EEFvvEEclEv", ptr @"_ZNKSt3__110__function6__funcIZ4mainE3$_3NS_9allocatorIS2_EEFvvEE6targetERKSt9type_info", ptr @"_ZNKSt3__110__function6__funcIZ4mainE3$_3NS_9allocatorIS2_EEFvvEE11target_typeEv"] }, align 8, !dbg !4586
@"_ZTINSt3__110__function6__funcIZ4mainE3$_3NS_9allocatorIS2_EEFvvEEE" = internal constant { ptr, ptr, ptr } { ptr getelementptr inbounds (ptr, ptr @_ZTVN10__cxxabiv120__si_class_type_infoE, i64 2), ptr @"_ZTSNSt3__110__function6__funcIZ4mainE3$_3NS_9allocatorIS2_EEFvvEEE", ptr @_ZTINSt3__110__function6__baseIFvvEEE }, align 8
@"_ZTSNSt3__110__function6__funcIZ4mainE3$_3NS_9allocatorIS2_EEFvvEEE" = internal constant [64 x i8] c"NSt3__110__function6__funcIZ4mainE3$_3NS_9allocatorIS2_EEFvvEEE\00", align 1
@.str.53 = private unnamed_addr constant [5 x i8] c"test\00", align 1, !dbg !4589
@.str.54 = private unnamed_addr constant [10 x i8] c"-5 25 888\00", align 1, !dbg !4591
@.str.55 = private unnamed_addr constant [33 x i8] c"Advanced Tester Outer MyCustomEx\00", align 1, !dbg !4593
@"_ZTIZ4mainE3$_3" = internal constant { ptr, ptr } { ptr getelementptr inbounds (ptr, ptr @_ZTVN10__cxxabiv117__class_type_infoE, i64 2), ptr @"_ZTSZ4mainE3$_3" }, align 8
@"_ZTSZ4mainE3$_3" = internal constant [12 x i8] c"Z4mainE3$_3\00", align 1
@"_ZTVNSt3__110__function6__funcIZ4mainE3$_4NS_9allocatorIS2_EEFvvEEE" = internal unnamed_addr constant { [11 x ptr] } { [11 x ptr] [ptr null, ptr @"_ZTINSt3__110__function6__funcIZ4mainE3$_4NS_9allocatorIS2_EEFvvEEE", ptr @"_ZNSt3__110__function6__funcIZ4mainE3$_4NS_9allocatorIS2_EEFvvEED2Ev", ptr @"_ZNSt3__110__function6__funcIZ4mainE3$_4NS_9allocatorIS2_EEFvvEED0Ev", ptr @"_ZNKSt3__110__function6__funcIZ4mainE3$_4NS_9allocatorIS2_EEFvvEE7__cloneEv", ptr @"_ZNKSt3__110__function6__funcIZ4mainE3$_4NS_9allocatorIS2_EEFvvEE7__cloneEPNS0_6__baseIS5_EE", ptr @"_ZNSt3__110__function6__funcIZ4mainE3$_4NS_9allocatorIS2_EEFvvEE7destroyEv", ptr @"_ZNSt3__110__function6__funcIZ4mainE3$_4NS_9allocatorIS2_EEFvvEE18destroy_deallocateEv", ptr @"_ZNSt3__110__function6__funcIZ4mainE3$_4NS_9allocatorIS2_EEFvvEEclEv", ptr @"_ZNKSt3__110__function6__funcIZ4mainE3$_4NS_9allocatorIS2_EEFvvEE6targetERKSt9type_info", ptr @"_ZNKSt3__110__function6__funcIZ4mainE3$_4NS_9allocatorIS2_EEFvvEE11target_typeEv"] }, align 8, !dbg !4598
@"_ZTINSt3__110__function6__funcIZ4mainE3$_4NS_9allocatorIS2_EEFvvEEE" = internal constant { ptr, ptr, ptr } { ptr getelementptr inbounds (ptr, ptr @_ZTVN10__cxxabiv120__si_class_type_infoE, i64 2), ptr @"_ZTSNSt3__110__function6__funcIZ4mainE3$_4NS_9allocatorIS2_EEFvvEEE", ptr @_ZTINSt3__110__function6__baseIFvvEEE }, align 8
@"_ZTSNSt3__110__function6__funcIZ4mainE3$_4NS_9allocatorIS2_EEFvvEEE" = internal constant [64 x i8] c"NSt3__110__function6__funcIZ4mainE3$_4NS_9allocatorIS2_EEFvvEEE\00", align 1
@.str.56 = private unnamed_addr constant [7 x i8] c"a12def\00", align 1, !dbg !4601
@.str.57 = private unnamed_addr constant [7 x i8] c"abcdef\00", align 1, !dbg !4603
@.str.58 = private unnamed_addr constant [3 x i8] c"12\00", align 1, !dbg !4605
@.str.59 = private unnamed_addr constant [26 x i8] c"String Manipulator Normal\00", align 1, !dbg !4610
@.str.60 = private unnamed_addr constant [6 x i8] c"res: \00", align 1, !dbg !4615
@"_ZTIZ4mainE3$_4" = internal constant { ptr, ptr } { ptr getelementptr inbounds (ptr, ptr @_ZTVN10__cxxabiv117__class_type_infoE, i64 2), ptr @"_ZTSZ4mainE3$_4" }, align 8
@"_ZTSZ4mainE3$_4" = internal constant [12 x i8] c"Z4mainE3$_4\00", align 1
@"_ZTVNSt3__110__function6__funcIZ4mainE3$_5NS_9allocatorIS2_EEFvvEEE" = internal unnamed_addr constant { [11 x ptr] } { [11 x ptr] [ptr null, ptr @"_ZTINSt3__110__function6__funcIZ4mainE3$_5NS_9allocatorIS2_EEFvvEEE", ptr @"_ZNSt3__110__function6__funcIZ4mainE3$_5NS_9allocatorIS2_EEFvvEED2Ev", ptr @"_ZNSt3__110__function6__funcIZ4mainE3$_5NS_9allocatorIS2_EEFvvEED0Ev", ptr @"_ZNKSt3__110__function6__funcIZ4mainE3$_5NS_9allocatorIS2_EEFvvEE7__cloneEv", ptr @"_ZNKSt3__110__function6__funcIZ4mainE3$_5NS_9allocatorIS2_EEFvvEE7__cloneEPNS0_6__baseIS5_EE", ptr @"_ZNSt3__110__function6__funcIZ4mainE3$_5NS_9allocatorIS2_EEFvvEE7destroyEv", ptr @"_ZNSt3__110__function6__funcIZ4mainE3$_5NS_9allocatorIS2_EEFvvEE18destroy_deallocateEv", ptr @"_ZNSt3__110__function6__funcIZ4mainE3$_5NS_9allocatorIS2_EEFvvEEclEv", ptr @"_ZNKSt3__110__function6__funcIZ4mainE3$_5NS_9allocatorIS2_EEFvvEE6targetERKSt9type_info", ptr @"_ZNKSt3__110__function6__funcIZ4mainE3$_5NS_9allocatorIS2_EEFvvEE11target_typeEv"] }, align 8, !dbg !4617
@"_ZTINSt3__110__function6__funcIZ4mainE3$_5NS_9allocatorIS2_EEFvvEEE" = internal constant { ptr, ptr, ptr } { ptr getelementptr inbounds (ptr, ptr @_ZTVN10__cxxabiv120__si_class_type_infoE, i64 2), ptr @"_ZTSNSt3__110__function6__funcIZ4mainE3$_5NS_9allocatorIS2_EEFvvEEE", ptr @_ZTINSt3__110__function6__baseIFvvEEE }, align 8
@"_ZTSNSt3__110__function6__funcIZ4mainE3$_5NS_9allocatorIS2_EEFvvEEE" = internal constant [64 x i8] c"NSt3__110__function6__funcIZ4mainE3$_5NS_9allocatorIS2_EEFvvEEE\00", align 1
@.str.61 = private unnamed_addr constant [3 x i8] c"hi\00", align 1, !dbg !4620
@.str.62 = private unnamed_addr constant [23 x i8] c"Unexpected exception: \00", align 1, !dbg !4622
@.str.63 = private unnamed_addr constant [32 x i8] c"String Manipulator Length Error\00", align 1, !dbg !4624
@.str.64 = private unnamed_addr constant [7 x i8] c"emsg: \00", align 1, !dbg !4627
@"_ZTIZ4mainE3$_5" = internal constant { ptr, ptr } { ptr getelementptr inbounds (ptr, ptr @_ZTVN10__cxxabiv117__class_type_infoE, i64 2), ptr @"_ZTSZ4mainE3$_5" }, align 8
@"_ZTSZ4mainE3$_5" = internal constant [12 x i8] c"Z4mainE3$_5\00", align 1
@"_ZTVNSt3__110__function6__funcIZ4mainE3$_6NS_9allocatorIS2_EEFvvEEE" = internal unnamed_addr constant { [11 x ptr] } { [11 x ptr] [ptr null, ptr @"_ZTINSt3__110__function6__funcIZ4mainE3$_6NS_9allocatorIS2_EEFvvEEE", ptr @"_ZNSt3__110__function6__funcIZ4mainE3$_6NS_9allocatorIS2_EEFvvEED2Ev", ptr @"_ZNSt3__110__function6__funcIZ4mainE3$_6NS_9allocatorIS2_EEFvvEED0Ev", ptr @"_ZNKSt3__110__function6__funcIZ4mainE3$_6NS_9allocatorIS2_EEFvvEE7__cloneEv", ptr @"_ZNKSt3__110__function6__funcIZ4mainE3$_6NS_9allocatorIS2_EEFvvEE7__cloneEPNS0_6__baseIS5_EE", ptr @"_ZNSt3__110__function6__funcIZ4mainE3$_6NS_9allocatorIS2_EEFvvEE7destroyEv", ptr @"_ZNSt3__110__function6__funcIZ4mainE3$_6NS_9allocatorIS2_EEFvvEE18destroy_deallocateEv", ptr @"_ZNSt3__110__function6__funcIZ4mainE3$_6NS_9allocatorIS2_EEFvvEEclEv", ptr @"_ZNKSt3__110__function6__funcIZ4mainE3$_6NS_9allocatorIS2_EEFvvEE6targetERKSt9type_info", ptr @"_ZNKSt3__110__function6__funcIZ4mainE3$_6NS_9allocatorIS2_EEFvvEE11target_typeEv"] }, align 8, !dbg !4629
@"_ZTINSt3__110__function6__funcIZ4mainE3$_6NS_9allocatorIS2_EEFvvEEE" = internal constant { ptr, ptr, ptr } { ptr getelementptr inbounds (ptr, ptr @_ZTVN10__cxxabiv120__si_class_type_infoE, i64 2), ptr @"_ZTSNSt3__110__function6__funcIZ4mainE3$_6NS_9allocatorIS2_EEFvvEEE", ptr @_ZTINSt3__110__function6__baseIFvvEEE }, align 8
@"_ZTSNSt3__110__function6__funcIZ4mainE3$_6NS_9allocatorIS2_EEFvvEEE" = internal constant [64 x i8] c"NSt3__110__function6__funcIZ4mainE3$_6NS_9allocatorIS2_EEFvvEEE\00", align 1
@.str.65 = private unnamed_addr constant [41 x i8] c"INNER_X_CAUGHT_fX_marks_spotd_the_X_char\00", align 1, !dbg !4632
@.str.66 = private unnamed_addr constant [16 x i8] c"find_the_X_char\00", align 1, !dbg !4637
@.str.67 = private unnamed_addr constant [13 x i8] c"X_marks_spot\00", align 1, !dbg !4639
@.str.68 = private unnamed_addr constant [31 x i8] c"Unexpected exception in main: \00", align 1, !dbg !4641
@.str.69 = private unnamed_addr constant [36 x i8] c"String Manipulator Inner MyCustomEx\00", align 1, !dbg !4646
@"_ZTIZ4mainE3$_6" = internal constant { ptr, ptr } { ptr getelementptr inbounds (ptr, ptr @_ZTVN10__cxxabiv117__class_type_infoE, i64 2), ptr @"_ZTSZ4mainE3$_6" }, align 8
@"_ZTSZ4mainE3$_6" = internal constant [12 x i8] c"Z4mainE3$_6\00", align 1
@"_ZTVNSt3__110__function6__funcIZ4mainE3$_7NS_9allocatorIS2_EEFvvEEE" = internal unnamed_addr constant { [11 x ptr] } { [11 x ptr] [ptr null, ptr @"_ZTINSt3__110__function6__funcIZ4mainE3$_7NS_9allocatorIS2_EEFvvEEE", ptr @"_ZNSt3__110__function6__funcIZ4mainE3$_7NS_9allocatorIS2_EEFvvEED2Ev", ptr @"_ZNSt3__110__function6__funcIZ4mainE3$_7NS_9allocatorIS2_EEFvvEED0Ev", ptr @"_ZNKSt3__110__function6__funcIZ4mainE3$_7NS_9allocatorIS2_EEFvvEE7__cloneEv", ptr @"_ZNKSt3__110__function6__funcIZ4mainE3$_7NS_9allocatorIS2_EEFvvEE7__cloneEPNS0_6__baseIS5_EE", ptr @"_ZNSt3__110__function6__funcIZ4mainE3$_7NS_9allocatorIS2_EEFvvEE7destroyEv", ptr @"_ZNSt3__110__function6__funcIZ4mainE3$_7NS_9allocatorIS2_EEFvvEE18destroy_deallocateEv", ptr @"_ZNSt3__110__function6__funcIZ4mainE3$_7NS_9allocatorIS2_EEFvvEEclEv", ptr @"_ZNKSt3__110__function6__funcIZ4mainE3$_7NS_9allocatorIS2_EEFvvEE6targetERKSt9type_info", ptr @"_ZNKSt3__110__function6__funcIZ4mainE3$_7NS_9allocatorIS2_EEFvvEE11target_typeEv"] }, align 8, !dbg !4648
@"_ZTINSt3__110__function6__funcIZ4mainE3$_7NS_9allocatorIS2_EEFvvEEE" = internal constant { ptr, ptr, ptr } { ptr getelementptr inbounds (ptr, ptr @_ZTVN10__cxxabiv120__si_class_type_infoE, i64 2), ptr @"_ZTSNSt3__110__function6__funcIZ4mainE3$_7NS_9allocatorIS2_EEFvvEEE", ptr @_ZTINSt3__110__function6__baseIFvvEEE }, align 8
@"_ZTSNSt3__110__function6__funcIZ4mainE3$_7NS_9allocatorIS2_EEFvvEEE" = internal constant [64 x i8] c"NSt3__110__function6__funcIZ4mainE3$_7NS_9allocatorIS2_EEFvvEEE\00", align 1
@.str.70 = private unnamed_addr constant [22 x i8] c"Risky Division Normal\00", align 1, !dbg !4651
@.str.71 = private unnamed_addr constant [6 x i8] c"val: \00", align 1, !dbg !4653
@"_ZTIZ4mainE3$_7" = internal constant { ptr, ptr } { ptr getelementptr inbounds (ptr, ptr @_ZTVN10__cxxabiv117__class_type_infoE, i64 2), ptr @"_ZTSZ4mainE3$_7" }, align 8
@"_ZTSZ4mainE3$_7" = internal constant [12 x i8] c"Z4mainE3$_7\00", align 1
@"_ZTVNSt3__110__function6__funcIZ4mainE3$_8NS_9allocatorIS2_EEFvvEEE" = internal unnamed_addr constant { [11 x ptr] } { [11 x ptr] [ptr null, ptr @"_ZTINSt3__110__function6__funcIZ4mainE3$_8NS_9allocatorIS2_EEFvvEEE", ptr @"_ZNSt3__110__function6__funcIZ4mainE3$_8NS_9allocatorIS2_EEFvvEED2Ev", ptr @"_ZNSt3__110__function6__funcIZ4mainE3$_8NS_9allocatorIS2_EEFvvEED0Ev", ptr @"_ZNKSt3__110__function6__funcIZ4mainE3$_8NS_9allocatorIS2_EEFvvEE7__cloneEv", ptr @"_ZNKSt3__110__function6__funcIZ4mainE3$_8NS_9allocatorIS2_EEFvvEE7__cloneEPNS0_6__baseIS5_EE", ptr @"_ZNSt3__110__function6__funcIZ4mainE3$_8NS_9allocatorIS2_EEFvvEE7destroyEv", ptr @"_ZNSt3__110__function6__funcIZ4mainE3$_8NS_9allocatorIS2_EEFvvEE18destroy_deallocateEv", ptr @"_ZNSt3__110__function6__funcIZ4mainE3$_8NS_9allocatorIS2_EEFvvEEclEv", ptr @"_ZNKSt3__110__function6__funcIZ4mainE3$_8NS_9allocatorIS2_EEFvvEE6targetERKSt9type_info", ptr @"_ZNKSt3__110__function6__funcIZ4mainE3$_8NS_9allocatorIS2_EEFvvEE11target_typeEv"] }, align 8, !dbg !4655
@"_ZTINSt3__110__function6__funcIZ4mainE3$_8NS_9allocatorIS2_EEFvvEEE" = internal constant { ptr, ptr, ptr } { ptr getelementptr inbounds (ptr, ptr @_ZTVN10__cxxabiv120__si_class_type_infoE, i64 2), ptr @"_ZTSNSt3__110__function6__funcIZ4mainE3$_8NS_9allocatorIS2_EEFvvEEE", ptr @_ZTINSt3__110__function6__baseIFvvEEE }, align 8
@"_ZTSNSt3__110__function6__funcIZ4mainE3$_8NS_9allocatorIS2_EEFvvEEE" = internal constant [64 x i8] c"NSt3__110__function6__funcIZ4mainE3$_8NS_9allocatorIS2_EEFvvEEE\00", align 1
@.str.72 = private unnamed_addr constant [23 x i8] c"Risky Division By Zero\00", align 1, !dbg !4658
@"_ZTIZ4mainE3$_8" = internal constant { ptr, ptr } { ptr getelementptr inbounds (ptr, ptr @_ZTVN10__cxxabiv117__class_type_infoE, i64 2), ptr @"_ZTSZ4mainE3$_8" }, align 8
@"_ZTSZ4mainE3$_8" = internal constant [12 x i8] c"Z4mainE3$_8\00", align 1
@"_ZTVNSt3__110__function6__funcIZ4mainE3$_9NS_9allocatorIS2_EEFvvEEE" = internal unnamed_addr constant { [11 x ptr] } { [11 x ptr] [ptr null, ptr @"_ZTINSt3__110__function6__funcIZ4mainE3$_9NS_9allocatorIS2_EEFvvEEE", ptr @"_ZNSt3__110__function6__funcIZ4mainE3$_9NS_9allocatorIS2_EEFvvEED2Ev", ptr @"_ZNSt3__110__function6__funcIZ4mainE3$_9NS_9allocatorIS2_EEFvvEED0Ev", ptr @"_ZNKSt3__110__function6__funcIZ4mainE3$_9NS_9allocatorIS2_EEFvvEE7__cloneEv", ptr @"_ZNKSt3__110__function6__funcIZ4mainE3$_9NS_9allocatorIS2_EEFvvEE7__cloneEPNS0_6__baseIS5_EE", ptr @"_ZNSt3__110__function6__funcIZ4mainE3$_9NS_9allocatorIS2_EEFvvEE7destroyEv", ptr @"_ZNSt3__110__function6__funcIZ4mainE3$_9NS_9allocatorIS2_EEFvvEE18destroy_deallocateEv", ptr @"_ZNSt3__110__function6__funcIZ4mainE3$_9NS_9allocatorIS2_EEFvvEEclEv", ptr @"_ZNKSt3__110__function6__funcIZ4mainE3$_9NS_9allocatorIS2_EEFvvEE6targetERKSt9type_info", ptr @"_ZNKSt3__110__function6__funcIZ4mainE3$_9NS_9allocatorIS2_EEFvvEE11target_typeEv"] }, align 8, !dbg !4660
@"_ZTINSt3__110__function6__funcIZ4mainE3$_9NS_9allocatorIS2_EEFvvEEE" = internal constant { ptr, ptr, ptr } { ptr getelementptr inbounds (ptr, ptr @_ZTVN10__cxxabiv120__si_class_type_infoE, i64 2), ptr @"_ZTSNSt3__110__function6__funcIZ4mainE3$_9NS_9allocatorIS2_EEFvvEEE", ptr @_ZTINSt3__110__function6__baseIFvvEEE }, align 8
@"_ZTSNSt3__110__function6__funcIZ4mainE3$_9NS_9allocatorIS2_EEFvvEEE" = internal constant [64 x i8] c"NSt3__110__function6__funcIZ4mainE3$_9NS_9allocatorIS2_EEFvvEEE\00", align 1
@.str.73 = private unnamed_addr constant [30 x i8] c"Risky Division Unlucky Number\00", align 1, !dbg !4663
@"_ZTIZ4mainE3$_9" = internal constant { ptr, ptr } { ptr getelementptr inbounds (ptr, ptr @_ZTVN10__cxxabiv117__class_type_infoE, i64 2), ptr @"_ZTSZ4mainE3$_9" }, align 8
@"_ZTSZ4mainE3$_9" = internal constant [12 x i8] c"Z4mainE3$_9\00", align 1
@llvm.global_ctors = appending global [1 x { i32, ptr, ptr }] [{ i32, ptr, ptr } { i32 65535, ptr @_GLOBAL__sub_I_test.cpp, ptr null }]

; Function Attrs: noinline uwtable
define internal void @__cxx_global_var_init() #0 section ".text.startup" !dbg !5942 {
  call void @_ZNSt3__112basic_stringIcNS_11char_traitsIcEENS_9allocatorIcEEEC2B8ne210000ILi0EEEPKc(ptr noundef nonnull align 8 dereferenceable(24) @_ZL11RESET_COLOR, ptr noundef @.str), !dbg !5943
  %1 = call i32 @__cxa_atexit(ptr @_ZNSt3__112basic_stringIcNS_11char_traitsIcEENS_9allocatorIcEEED1Ev, ptr @_ZL11RESET_COLOR, ptr @__dso_handle) #3, !dbg !5944
  ret void, !dbg !5943
}

; Function Attrs: mustprogress noinline optnone uwtable
define linkonce_odr dso_local void @_ZNSt3__112basic_stringIcNS_11char_traitsIcEENS_9allocatorIcEEEC2B8ne210000ILi0EEEPKc(ptr noundef nonnull align 8 dereferenceable(24) %0, ptr noundef %1) unnamed_addr #1 comdat align 2 !dbg !5945 {
  %3 = alloca ptr, align 8
  %4 = alloca ptr, align 8
  store ptr %0, ptr %3, align 8
    #dbg_declare(ptr %3, !5951, !DIExpression(), !5953)
  store ptr %1, ptr %4, align 8
    #dbg_declare(ptr %4, !5954, !DIExpression(), !5955)
  %5 = load ptr, ptr %3, align 8
  %6 = getelementptr inbounds nuw %"class.std::__1::basic_string", ptr %5, i32 0, i32 0, !dbg !5956
  call void @_ZNSt3__19allocatorIcEC2B8ne210000Ev(ptr noundef nonnull align 1 dereferenceable(1) %5) #3, !dbg !5956
  %7 = load ptr, ptr %4, align 8, !dbg !5957
  %8 = load ptr, ptr %4, align 8, !dbg !5959
  %9 = call noundef i64 @_ZNSt3__111char_traitsIcE6lengthB8ne210000EPKc(ptr noundef %8) #3, !dbg !5960
  call void @_ZNSt3__112basic_stringIcNS_11char_traitsIcEENS_9allocatorIcEEE6__initEPKcm(ptr noundef nonnull align 8 dereferenceable(24) %5, ptr noundef %7, i64 noundef %9), !dbg !5961
  ret void, !dbg !5962
}

; Function Attrs: nounwind
declare void @_ZNSt3__112basic_stringIcNS_11char_traitsIcEENS_9allocatorIcEEED1Ev(ptr noundef nonnull align 8 dereferenceable(24)) unnamed_addr #2

; Function Attrs: nounwind
declare i32 @__cxa_atexit(ptr, ptr, ptr) #3

; Function Attrs: noinline uwtable
define internal void @__cxx_global_var_init.1() #0 section ".text.startup" !dbg !5963 {
  call void @_ZNSt3__112basic_stringIcNS_11char_traitsIcEENS_9allocatorIcEEEC2B8ne210000ILi0EEEPKc(ptr noundef nonnull align 8 dereferenceable(24) @_ZL11GREEN_COLOR, ptr noundef @.str.2), !dbg !5964
  %1 = call i32 @__cxa_atexit(ptr @_ZNSt3__112basic_stringIcNS_11char_traitsIcEENS_9allocatorIcEEED1Ev, ptr @_ZL11GREEN_COLOR, ptr @__dso_handle) #3, !dbg !5965
  ret void, !dbg !5964
}

; Function Attrs: noinline uwtable
define internal void @__cxx_global_var_init.3() #0 section ".text.startup" !dbg !5966 {
  call void @_ZNSt3__112basic_stringIcNS_11char_traitsIcEENS_9allocatorIcEEEC2B8ne210000ILi0EEEPKc(ptr noundef nonnull align 8 dereferenceable(24) @_ZL9RED_COLOR, ptr noundef @.str.4), !dbg !5967
  %1 = call i32 @__cxa_atexit(ptr @_ZNSt3__112basic_stringIcNS_11char_traitsIcEENS_9allocatorIcEEED1Ev, ptr @_ZL9RED_COLOR, ptr @__dso_handle) #3, !dbg !5968
  ret void, !dbg !5967
}

; Function Attrs: noinline uwtable
define internal void @__cxx_global_var_init.5() #0 section ".text.startup" !dbg !5969 {
  call void @_ZNSt3__112basic_stringIcNS_11char_traitsIcEENS_9allocatorIcEEEC2B8ne210000ILi0EEEPKc(ptr noundef nonnull align 8 dereferenceable(24) @_ZL12YELLOW_COLOR, ptr noundef @.str.6), !dbg !5970
  %1 = call i32 @__cxa_atexit(ptr @_ZNSt3__112basic_stringIcNS_11char_traitsIcEENS_9allocatorIcEEED1Ev, ptr @_ZL12YELLOW_COLOR, ptr @__dso_handle) #3, !dbg !5971
  ret void, !dbg !5970
}

; Function Attrs: mustprogress noinline optnone uwtable
define dso_local void @_Z17print_test_resultRKNSt3__112basic_stringIcNS_11char_traitsIcEENS_9allocatorIcEEEEbS7_S7_(ptr noundef nonnull align 8 dereferenceable(24) %0, i1 noundef zeroext %1, ptr noundef nonnull align 8 dereferenceable(24) %2, ptr noundef nonnull align 8 dereferenceable(24) %3) #1 !dbg !5972 {
  %5 = alloca ptr, align 8
  %6 = alloca i8, align 1
  %7 = alloca ptr, align 8
  %8 = alloca ptr, align 8
  store ptr %0, ptr %5, align 8
    #dbg_declare(ptr %5, !5975, !DIExpression(), !5976)
  %9 = zext i1 %1 to i8
  store i8 %9, ptr %6, align 1
    #dbg_declare(ptr %6, !5977, !DIExpression(), !5978)
  store ptr %2, ptr %7, align 8
    #dbg_declare(ptr %7, !5979, !DIExpression(), !5980)
  store ptr %3, ptr %8, align 8
    #dbg_declare(ptr %8, !5981, !DIExpression(), !5982)
  %10 = load i8, ptr %6, align 1, !dbg !5983
  %11 = trunc i8 %10 to i1, !dbg !5983
  br i1 %11, label %12, label %19, !dbg !5983

12:                                               ; preds = %4
  %13 = call noundef nonnull align 8 dereferenceable(8) ptr @_ZNSt3__1lsB8ne210000IcNS_11char_traitsIcEENS_9allocatorIcEEEERNS_13basic_ostreamIT_T0_EES9_RKNS_12basic_stringIS6_S7_T1_EE(ptr noundef nonnull align 8 dereferenceable(8) @_ZNSt3__14coutE, ptr noundef nonnull align 8 dereferenceable(24) @_ZL11GREEN_COLOR), !dbg !5985
  %14 = call noundef nonnull align 8 dereferenceable(8) ptr @_ZNSt3__1lsB8ne210000INS_11char_traitsIcEEEERNS_13basic_ostreamIcT_EES6_PKc(ptr noundef nonnull align 8 dereferenceable(8) %13, ptr noundef @.str.7), !dbg !5987
  %15 = load ptr, ptr %5, align 8, !dbg !5988, !nonnull !103, !align !5989
  %16 = call noundef nonnull align 8 dereferenceable(8) ptr @_ZNSt3__1lsB8ne210000IcNS_11char_traitsIcEENS_9allocatorIcEEEERNS_13basic_ostreamIT_T0_EES9_RKNS_12basic_stringIS6_S7_T1_EE(ptr noundef nonnull align 8 dereferenceable(8) %14, ptr noundef nonnull align 8 dereferenceable(24) %15), !dbg !5990
  %17 = call noundef nonnull align 8 dereferenceable(8) ptr @_ZNSt3__1lsB8ne210000IcNS_11char_traitsIcEENS_9allocatorIcEEEERNS_13basic_ostreamIT_T0_EES9_RKNS_12basic_stringIS6_S7_T1_EE(ptr noundef nonnull align 8 dereferenceable(8) %16, ptr noundef nonnull align 8 dereferenceable(24) @_ZL11RESET_COLOR), !dbg !5991
  %18 = call noundef nonnull align 8 dereferenceable(8) ptr @_ZNSt3__113basic_ostreamIcNS_11char_traitsIcEEElsB8ne210000EPFRS3_S4_E(ptr noundef nonnull align 8 dereferenceable(8) %17, ptr noundef @_ZNSt3__14endlB8ne210000IcNS_11char_traitsIcEEEERNS_13basic_ostreamIT_T0_EES7_), !dbg !5992
  br label %41, !dbg !5993

19:                                               ; preds = %4
  %20 = call noundef nonnull align 8 dereferenceable(8) ptr @_ZNSt3__1lsB8ne210000IcNS_11char_traitsIcEENS_9allocatorIcEEEERNS_13basic_ostreamIT_T0_EES9_RKNS_12basic_stringIS6_S7_T1_EE(ptr noundef nonnull align 8 dereferenceable(8) @_ZNSt3__14coutE, ptr noundef nonnull align 8 dereferenceable(24) @_ZL9RED_COLOR), !dbg !5994
  %21 = call noundef nonnull align 8 dereferenceable(8) ptr @_ZNSt3__1lsB8ne210000INS_11char_traitsIcEEEERNS_13basic_ostreamIcT_EES6_PKc(ptr noundef nonnull align 8 dereferenceable(8) %20, ptr noundef @.str.8), !dbg !5996
  %22 = load ptr, ptr %5, align 8, !dbg !5997, !nonnull !103, !align !5989
  %23 = call noundef nonnull align 8 dereferenceable(8) ptr @_ZNSt3__1lsB8ne210000IcNS_11char_traitsIcEENS_9allocatorIcEEEERNS_13basic_ostreamIT_T0_EES9_RKNS_12basic_stringIS6_S7_T1_EE(ptr noundef nonnull align 8 dereferenceable(8) %21, ptr noundef nonnull align 8 dereferenceable(24) %22), !dbg !5998
  %24 = call noundef nonnull align 8 dereferenceable(8) ptr @_ZNSt3__1lsB8ne210000IcNS_11char_traitsIcEENS_9allocatorIcEEEERNS_13basic_ostreamIT_T0_EES9_RKNS_12basic_stringIS6_S7_T1_EE(ptr noundef nonnull align 8 dereferenceable(8) %23, ptr noundef nonnull align 8 dereferenceable(24) @_ZL11RESET_COLOR), !dbg !5999
  %25 = call noundef nonnull align 8 dereferenceable(8) ptr @_ZNSt3__113basic_ostreamIcNS_11char_traitsIcEEElsB8ne210000EPFRS3_S4_E(ptr noundef nonnull align 8 dereferenceable(8) %24, ptr noundef @_ZNSt3__14endlB8ne210000IcNS_11char_traitsIcEEEERNS_13basic_ostreamIT_T0_EES7_), !dbg !6000
  %26 = load ptr, ptr %7, align 8, !dbg !6001, !nonnull !103, !align !5989
  %27 = call noundef zeroext i1 @_ZNKSt3__112basic_stringIcNS_11char_traitsIcEENS_9allocatorIcEEE5emptyB8ne210000Ev(ptr noundef nonnull align 8 dereferenceable(24) %26) #3, !dbg !6003
  br i1 %27, label %28, label %31, !dbg !6004

28:                                               ; preds = %19
  %29 = load ptr, ptr %8, align 8, !dbg !6005, !nonnull !103, !align !5989
  %30 = call noundef zeroext i1 @_ZNKSt3__112basic_stringIcNS_11char_traitsIcEENS_9allocatorIcEEE5emptyB8ne210000Ev(ptr noundef nonnull align 8 dereferenceable(24) %29) #3, !dbg !6006
  br i1 %30, label %40, label %31, !dbg !6004

31:                                               ; preds = %28, %19
  %32 = call noundef nonnull align 8 dereferenceable(8) ptr @_ZNSt3__1lsB8ne210000INS_11char_traitsIcEEEERNS_13basic_ostreamIcT_EES6_PKc(ptr noundef nonnull align 8 dereferenceable(8) @_ZNSt3__14coutE, ptr noundef @.str.9), !dbg !6007
  %33 = load ptr, ptr %7, align 8, !dbg !6009, !nonnull !103, !align !5989
  %34 = call noundef nonnull align 8 dereferenceable(8) ptr @_ZNSt3__1lsB8ne210000IcNS_11char_traitsIcEENS_9allocatorIcEEEERNS_13basic_ostreamIT_T0_EES9_RKNS_12basic_stringIS6_S7_T1_EE(ptr noundef nonnull align 8 dereferenceable(8) %32, ptr noundef nonnull align 8 dereferenceable(24) %33), !dbg !6010
  %35 = call noundef nonnull align 8 dereferenceable(8) ptr @_ZNSt3__113basic_ostreamIcNS_11char_traitsIcEEElsB8ne210000EPFRS3_S4_E(ptr noundef nonnull align 8 dereferenceable(8) %34, ptr noundef @_ZNSt3__14endlB8ne210000IcNS_11char_traitsIcEEEERNS_13basic_ostreamIT_T0_EES7_), !dbg !6011
  %36 = call noundef nonnull align 8 dereferenceable(8) ptr @_ZNSt3__1lsB8ne210000INS_11char_traitsIcEEEERNS_13basic_ostreamIcT_EES6_PKc(ptr noundef nonnull align 8 dereferenceable(8) @_ZNSt3__14coutE, ptr noundef @.str.10), !dbg !6012
  %37 = load ptr, ptr %8, align 8, !dbg !6013, !nonnull !103, !align !5989
  %38 = call noundef nonnull align 8 dereferenceable(8) ptr @_ZNSt3__1lsB8ne210000IcNS_11char_traitsIcEENS_9allocatorIcEEEERNS_13basic_ostreamIT_T0_EES9_RKNS_12basic_stringIS6_S7_T1_EE(ptr noundef nonnull align 8 dereferenceable(8) %36, ptr noundef nonnull align 8 dereferenceable(24) %37), !dbg !6014
  %39 = call noundef nonnull align 8 dereferenceable(8) ptr @_ZNSt3__113basic_ostreamIcNS_11char_traitsIcEEElsB8ne210000EPFRS3_S4_E(ptr noundef nonnull align 8 dereferenceable(8) %38, ptr noundef @_ZNSt3__14endlB8ne210000IcNS_11char_traitsIcEEEERNS_13basic_ostreamIT_T0_EES7_), !dbg !6015
  br label %40, !dbg !6016

40:                                               ; preds = %31, %28
  br label %41

41:                                               ; preds = %40, %12
  ret void, !dbg !6017
}

; Function Attrs: mustprogress noinline optnone uwtable
define linkonce_odr hidden noundef nonnull align 8 dereferenceable(8) ptr @_ZNSt3__1lsB8ne210000IcNS_11char_traitsIcEENS_9allocatorIcEEEERNS_13basic_ostreamIT_T0_EES9_RKNS_12basic_stringIS6_S7_T1_EE(ptr noundef nonnull align 8 dereferenceable(8) %0, ptr noundef nonnull align 8 dereferenceable(24) %1) #1 comdat !dbg !6018 {
  %3 = alloca ptr, align 8
  %4 = alloca ptr, align 8
  store ptr %0, ptr %3, align 8
    #dbg_declare(ptr %3, !6023, !DIExpression(), !6024)
  store ptr %1, ptr %4, align 8
    #dbg_declare(ptr %4, !6025, !DIExpression(), !6026)
  %5 = load ptr, ptr %3, align 8, !dbg !6027, !nonnull !103, !align !5989
  %6 = load ptr, ptr %4, align 8, !dbg !6028, !nonnull !103, !align !5989
  %7 = call noundef ptr @_ZNKSt3__112basic_stringIcNS_11char_traitsIcEENS_9allocatorIcEEE4dataB8ne210000Ev(ptr noundef nonnull align 8 dereferenceable(24) %6) #3, !dbg !6029
  %8 = load ptr, ptr %4, align 8, !dbg !6030, !nonnull !103, !align !5989
  %9 = call noundef i64 @_ZNKSt3__112basic_stringIcNS_11char_traitsIcEENS_9allocatorIcEEE4sizeB8ne210000Ev(ptr noundef nonnull align 8 dereferenceable(24) %8) #3, !dbg !6031
  %10 = call noundef nonnull align 8 dereferenceable(8) ptr @_ZNSt3__124__put_character_sequenceB8ne210000IcNS_11char_traitsIcEEEERNS_13basic_ostreamIT_T0_EES7_PKS4_m(ptr noundef nonnull align 8 dereferenceable(8) %5, ptr noundef %7, i64 noundef %9), !dbg !6032
  ret ptr %10, !dbg !6033
}

; Function Attrs: mustprogress noinline optnone uwtable
define linkonce_odr hidden noundef nonnull align 8 dereferenceable(8) ptr @_ZNSt3__1lsB8ne210000INS_11char_traitsIcEEEERNS_13basic_ostreamIcT_EES6_PKc(ptr noundef nonnull align 8 dereferenceable(8) %0, ptr noundef %1) #1 comdat !dbg !6034 {
  %3 = alloca ptr, align 8
  %4 = alloca ptr, align 8
  store ptr %0, ptr %3, align 8
    #dbg_declare(ptr %3, !6038, !DIExpression(), !6039)
  store ptr %1, ptr %4, align 8
    #dbg_declare(ptr %4, !6040, !DIExpression(), !6041)
  %5 = load ptr, ptr %3, align 8, !dbg !6042, !nonnull !103, !align !5989
  %6 = load ptr, ptr %4, align 8, !dbg !6043
  %7 = load ptr, ptr %4, align 8, !dbg !6044
  %8 = call noundef i64 @_ZNSt3__111char_traitsIcE6lengthB8ne210000EPKc(ptr noundef %7) #3, !dbg !6045
  %9 = call noundef nonnull align 8 dereferenceable(8) ptr @_ZNSt3__124__put_character_sequenceB8ne210000IcNS_11char_traitsIcEEEERNS_13basic_ostreamIT_T0_EES7_PKS4_m(ptr noundef nonnull align 8 dereferenceable(8) %5, ptr noundef %6, i64 noundef %8), !dbg !6046
  ret ptr %9, !dbg !6047
}

; Function Attrs: mustprogress noinline optnone uwtable
define linkonce_odr hidden noundef nonnull align 8 dereferenceable(8) ptr @_ZNSt3__113basic_ostreamIcNS_11char_traitsIcEEElsB8ne210000EPFRS3_S4_E(ptr noundef nonnull align 8 dereferenceable(8) %0, ptr noundef %1) #1 comdat align 2 !dbg !6048 {
  %3 = alloca ptr, align 8
  %4 = alloca ptr, align 8
  store ptr %0, ptr %3, align 8
    #dbg_declare(ptr %3, !6056, !DIExpression(), !6058)
  store ptr %1, ptr %4, align 8
    #dbg_declare(ptr %4, !6059, !DIExpression(), !6060)
  %5 = load ptr, ptr %3, align 8
  %6 = load ptr, ptr %4, align 8, !dbg !6061
  %7 = call noundef nonnull align 8 dereferenceable(8) ptr %6(ptr noundef nonnull align 8 dereferenceable(8) %5), !dbg !6061
  ret ptr %7, !dbg !6062
}

; Function Attrs: mustprogress noinline optnone uwtable
define linkonce_odr hidden noundef nonnull align 8 dereferenceable(8) ptr @_ZNSt3__14endlB8ne210000IcNS_11char_traitsIcEEEERNS_13basic_ostreamIT_T0_EES7_(ptr noundef nonnull align 8 dereferenceable(8) %0) #1 comdat !dbg !6063 {
  %2 = alloca ptr, align 8
  store ptr %0, ptr %2, align 8
    #dbg_declare(ptr %2, !6064, !DIExpression(), !6065)
  %3 = load ptr, ptr %2, align 8, !dbg !6066, !nonnull !103, !align !5989
  %4 = load ptr, ptr %2, align 8, !dbg !6067, !nonnull !103, !align !5989
  %5 = load ptr, ptr %4, align 8, !dbg !6067
  %6 = getelementptr i8, ptr %5, i64 -24, !dbg !6067
  %7 = load i64, ptr %6, align 8, !dbg !6067
  %8 = getelementptr inbounds i8, ptr %4, i64 %7, !dbg !6067
  %9 = call noundef signext i8 @_ZNKSt3__19basic_iosIcNS_11char_traitsIcEEE5widenB8ne210000Ec(ptr noundef nonnull align 8 dereferenceable(148) %8, i8 noundef signext 10), !dbg !6068
  %10 = call noundef nonnull align 8 dereferenceable(8) ptr @_ZNSt3__113basic_ostreamIcNS_11char_traitsIcEEE3putEc(ptr noundef nonnull align 8 dereferenceable(8) %3, i8 noundef signext %9), !dbg !6069
  %11 = load ptr, ptr %2, align 8, !dbg !6070, !nonnull !103, !align !5989
  %12 = call noundef nonnull align 8 dereferenceable(8) ptr @_ZNSt3__113basic_ostreamIcNS_11char_traitsIcEEE5flushEv(ptr noundef nonnull align 8 dereferenceable(8) %11), !dbg !6071
  %13 = load ptr, ptr %2, align 8, !dbg !6072, !nonnull !103, !align !5989
  ret ptr %13, !dbg !6073
}

; Function Attrs: mustprogress noinline nounwind optnone uwtable
define linkonce_odr hidden noundef zeroext i1 @_ZNKSt3__112basic_stringIcNS_11char_traitsIcEENS_9allocatorIcEEE5emptyB8ne210000Ev(ptr noundef nonnull align 8 dereferenceable(24) %0) #4 comdat align 2 !dbg !6074 {
  %2 = alloca ptr, align 8
  store ptr %0, ptr %2, align 8
    #dbg_declare(ptr %2, !6075, !DIExpression(), !6077)
  %3 = load ptr, ptr %2, align 8
  %4 = call noundef i64 @_ZNKSt3__112basic_stringIcNS_11char_traitsIcEENS_9allocatorIcEEE4sizeB8ne210000Ev(ptr noundef nonnull align 8 dereferenceable(24) %3) #3, !dbg !6078
  %5 = icmp eq i64 %4, 0, !dbg !6079
  ret i1 %5, !dbg !6080
}

; Function Attrs: mustprogress noinline optnone uwtable
define dso_local void @_Z31advanced_feature_tester_checkedidRKNSt3__112basic_stringIcNS_11char_traitsIcEENS_9allocatorIcEEEERbRS5_(ptr dead_on_unwind noalias writable sret(%"class.std::__1::basic_string") align 8 %0, i32 noundef %1, double noundef %2, ptr noundef nonnull align 8 dereferenceable(24) %3, ptr noundef nonnull align 1 dereferenceable(1) %4, ptr noundef nonnull align 8 dereferenceable(24) %5) #1 personality ptr @__gxx_personality_v0 !dbg !6081 {
  %7 = alloca ptr, align 8
  %8 = alloca i32, align 4
  %9 = alloca double, align 8
  %10 = alloca ptr, align 8
  %11 = alloca ptr, align 8
  %12 = alloca ptr, align 8
  %13 = alloca %"class.std::__1::basic_ostringstream", align 8
  %14 = alloca ptr, align 8
  %15 = alloca i32, align 4
  %16 = alloca %"class.std::__1::unique_ptr", align 8
  %17 = alloca i32, align 4
  %18 = alloca i32, align 4
  %19 = alloca double, align 8
  %20 = alloca ptr, align 8
  %21 = alloca i32, align 4
  %22 = alloca %"class.std::__1::basic_string", align 8
  %23 = alloca %"class.std::__1::basic_string", align 8
  %24 = alloca ptr, align 8
  %25 = alloca i32, align 4
  %26 = alloca ptr, align 8
  %27 = alloca i32, align 4
  %28 = alloca ptr, align 8
  %29 = alloca i32, align 4
  %30 = alloca i64, align 8
  store ptr %0, ptr %7, align 8
  store i32 %1, ptr %8, align 4
    #dbg_declare(ptr %8, !6086, !DIExpression(), !6087)
  store double %2, ptr %9, align 8
    #dbg_declare(ptr %9, !6088, !DIExpression(), !6089)
  store ptr %3, ptr %10, align 8
    #dbg_declare(ptr %10, !6090, !DIExpression(), !6091)
  store ptr %4, ptr %11, align 8
    #dbg_declare(ptr %11, !6092, !DIExpression(), !6093)
  store ptr %5, ptr %12, align 8
    #dbg_declare(ptr %12, !6094, !DIExpression(), !6095)
    #dbg_declare(ptr %13, !6096, !DIExpression(), !6100)
  call void @_ZNSt3__119basic_ostringstreamIcNS_11char_traitsIcEENS_9allocatorIcEEEC1B8ne210000Ev(ptr noundef nonnull align 8 dereferenceable(112) %13), !dbg !6100
  %31 = load ptr, ptr %11, align 8, !dbg !6101, !nonnull !103
  store i8 1, ptr %31, align 1, !dbg !6102
  %32 = load ptr, ptr %12, align 8, !dbg !6103, !nonnull !103, !align !5989
  %33 = invoke noundef nonnull align 8 dereferenceable(24) ptr @_ZNSt3__112basic_stringIcNS_11char_traitsIcEENS_9allocatorIcEEEaSB8ne210000EPKc(ptr noundef nonnull align 8 dereferenceable(24) %32, ptr noundef @.str.11)
          to label %34 unwind label %56, !dbg !6104

34:                                               ; preds = %6
    #dbg_declare(ptr %16, !6105, !DIExpression(), !6106)
  invoke void @_ZNSt3__111make_uniqueB8ne210000INS_6vectorIiNS_9allocatorIiEEEEJETnNS_9enable_ifIXntsr8is_arrayIT_EE5valueEiE4typeELi0EEENS_10unique_ptrIS6_NS_14default_deleteIS6_EEEEDpOT0_(ptr dead_on_unwind writable sret(%"class.std::__1::unique_ptr") align 8 %16)
          to label %35 unwind label %56, !dbg !6107

35:                                               ; preds = %34
  %36 = call noundef ptr @_ZNKSt3__110unique_ptrINS_6vectorIiNS_9allocatorIiEEEENS_14default_deleteIS4_EEEptB8ne210000Ev(ptr noundef nonnull align 8 dereferenceable(8) %16) #3, !dbg !6108
  invoke void @_ZNSt3__16vectorIiNS_9allocatorIiEEE9push_backB8ne210000ERKi(ptr noundef nonnull align 8 dereferenceable(24) %36, ptr noundef nonnull align 4 dereferenceable(4) %8)
          to label %37 unwind label %60, !dbg !6109

37:                                               ; preds = %35
  %38 = call noundef ptr @_ZNKSt3__110unique_ptrINS_6vectorIiNS_9allocatorIiEEEENS_14default_deleteIS4_EEEptB8ne210000Ev(ptr noundef nonnull align 8 dereferenceable(8) %16) #3, !dbg !6110
  %39 = load i32, ptr %8, align 4, !dbg !6111
  %40 = load i32, ptr %8, align 4, !dbg !6112
  %41 = mul nsw i32 %39, %40, !dbg !6113
  store i32 %41, ptr %17, align 4, !dbg !6111
  invoke void @_ZNSt3__16vectorIiNS_9allocatorIiEEE9push_backB8ne210000EOi(ptr noundef nonnull align 8 dereferenceable(24) %38, ptr noundef nonnull align 4 dereferenceable(4) %17)
          to label %42 unwind label %60, !dbg !6114

42:                                               ; preds = %37
    #dbg_declare(ptr %18, !6115, !DIExpression(), !6117)
  %43 = load i32, ptr %8, align 4, !dbg !6118
  %44 = invoke noundef i32 @_Z12process_dataIiET_S0_(i32 noundef %43)
          to label %45 unwind label %64, !dbg !6119

45:                                               ; preds = %42
  store i32 %44, ptr %18, align 4, !dbg !6117
  %46 = call noundef ptr @_ZNKSt3__110unique_ptrINS_6vectorIiNS_9allocatorIiEEEENS_14default_deleteIS4_EEEptB8ne210000Ev(ptr noundef nonnull align 8 dereferenceable(8) %16) #3, !dbg !6120
  invoke void @_ZNSt3__16vectorIiNS_9allocatorIiEEE9push_backB8ne210000ERKi(ptr noundef nonnull align 8 dereferenceable(24) %46, ptr noundef nonnull align 4 dereferenceable(4) %18)
          to label %47 unwind label %64, !dbg !6121

47:                                               ; preds = %45
    #dbg_declare(ptr %19, !6122, !DIExpression(), !6124)
  %48 = load double, ptr %9, align 8, !dbg !6125
  %49 = invoke noundef double @_Z12process_dataIdET_S0_(double noundef %48)
          to label %50 unwind label %68, !dbg !6126

50:                                               ; preds = %47
  store double %49, ptr %19, align 8, !dbg !6124
  %51 = load ptr, ptr %10, align 8, !dbg !6127, !nonnull !103, !align !5989
  %52 = call noundef zeroext i1 @_ZNKSt3__112basic_stringIcNS_11char_traitsIcEENS_9allocatorIcEEE5emptyB8ne210000Ev(ptr noundef nonnull align 8 dereferenceable(24) %51) #3, !dbg !6129
  br i1 %52, label %53, label %115, !dbg !6129

53:                                               ; preds = %50
  %54 = call ptr @__cxa_allocate_exception(i64 16) #3, !dbg !6130
  invoke void @_ZNSt16invalid_argumentC2B8ne210000EPKc(ptr noundef nonnull align 8 dereferenceable(16) %54, ptr noundef @.str.12)
          to label %55 unwind label %72, !dbg !6132

55:                                               ; preds = %53
  invoke void @__cxa_throw(ptr %54, ptr @_ZTISt16invalid_argument, ptr @_ZNSt16invalid_argumentD1Ev) #17
          to label %218 unwind label %68, !dbg !6130

56:                                               ; preds = %34, %6
  %57 = landingpad { ptr, i32 }
          cleanup, !dbg !6133
  %58 = extractvalue { ptr, i32 } %57, 0, !dbg !6133
  store ptr %58, ptr %14, align 8, !dbg !6133
  %59 = extractvalue { ptr, i32 } %57, 1, !dbg !6133
  store i32 %59, ptr %15, align 4, !dbg !6133
  br label %209, !dbg !6133

60:                                               ; preds = %206, %165, %159, %151, %193, %37, %35
  %61 = landingpad { ptr, i32 }
          cleanup, !dbg !6133
  %62 = extractvalue { ptr, i32 } %61, 0, !dbg !6133
  store ptr %62, ptr %14, align 8, !dbg !6133
  %63 = extractvalue { ptr, i32 } %61, 1, !dbg !6133
  store i32 %63, ptr %15, align 4, !dbg !6133
  br label %208, !dbg !6133

64:                                               ; preds = %92, %45, %42
  %65 = landingpad { ptr, i32 }
          cleanup
          catch ptr @_ZTI17MyCustomException
          catch ptr @_ZTISt9exception, !dbg !6134
  %66 = extractvalue { ptr, i32 } %65, 0, !dbg !6134
  store ptr %66, ptr %14, align 8, !dbg !6134
  %67 = extractvalue { ptr, i32 } %65, 1, !dbg !6134
  store i32 %67, ptr %15, align 4, !dbg !6134
  br label %135, !dbg !6134

68:                                               ; preds = %55, %47
  %69 = landingpad { ptr, i32 }
          cleanup
          catch ptr @_ZTI22AnotherCustomException
          catch ptr @_ZTISt16invalid_argument
          catch ptr @_ZTI17MyCustomException
          catch ptr @_ZTISt9exception, !dbg !6135
  %70 = extractvalue { ptr, i32 } %69, 0, !dbg !6135
  store ptr %70, ptr %14, align 8, !dbg !6135
  %71 = extractvalue { ptr, i32 } %69, 1, !dbg !6135
  store i32 %71, ptr %15, align 4, !dbg !6135
  br label %76, !dbg !6135

72:                                               ; preds = %53
  %73 = landingpad { ptr, i32 }
          cleanup
          catch ptr @_ZTI22AnotherCustomException
          catch ptr @_ZTISt16invalid_argument
          catch ptr @_ZTI17MyCustomException
          catch ptr @_ZTISt9exception, !dbg !6136
  %74 = extractvalue { ptr, i32 } %73, 0, !dbg !6136
  store ptr %74, ptr %14, align 8, !dbg !6136
  %75 = extractvalue { ptr, i32 } %73, 1, !dbg !6136
  store i32 %75, ptr %15, align 4, !dbg !6136
  call void @__cxa_free_exception(ptr %54) #3, !dbg !6130
  br label %76, !dbg !6130

76:                                               ; preds = %72, %68
  %77 = load i32, ptr %15, align 4, !dbg !6137
  %78 = call i32 @llvm.eh.typeid.for.p0(ptr @_ZTI22AnotherCustomException) #3, !dbg !6137
  %79 = icmp eq i32 %77, %78, !dbg !6137
  br i1 %79, label %80, label %95, !dbg !6137

80:                                               ; preds = %76
    #dbg_declare(ptr %24, !6138, !DIExpression(), !6141)
  %81 = load ptr, ptr %14, align 8, !dbg !6142
  %82 = call ptr @__cxa_begin_catch(ptr %81) #3, !dbg !6142
  store ptr %82, ptr %24, align 8, !dbg !6142
  %83 = call noundef ptr @_ZNKSt3__110unique_ptrINS_6vectorIiNS_9allocatorIiEEEENS_14default_deleteIS4_EEEptB8ne210000Ev(ptr noundef nonnull align 8 dereferenceable(8) %16) #3, !dbg !6144
  store i32 777, ptr %25, align 4, !dbg !6146
  invoke void @_ZNSt3__16vectorIiNS_9allocatorIiEEE9push_backB8ne210000EOi(ptr noundef nonnull align 8 dereferenceable(24) %83, ptr noundef nonnull align 4 dereferenceable(4) %25)
          to label %84 unwind label %130, !dbg !6147

84:                                               ; preds = %80
  %85 = load ptr, ptr %24, align 8, !dbg !6148, !nonnull !103, !align !5989
  %86 = load ptr, ptr %85, align 8, !dbg !6149
  %87 = getelementptr inbounds ptr, ptr %86, i64 2, !dbg !6149
  %88 = load ptr, ptr %87, align 8, !dbg !6149
  %89 = call noundef ptr %88(ptr noundef nonnull align 8 dereferenceable(16) %85) #3, !dbg !6149
  %90 = load ptr, ptr %12, align 8, !dbg !6150, !nonnull !103, !align !5989
  %91 = invoke noundef nonnull align 8 dereferenceable(24) ptr @_ZNSt3__112basic_stringIcNS_11char_traitsIcEENS_9allocatorIcEEEaSB8ne210000EPKc(ptr noundef nonnull align 8 dereferenceable(24) %90, ptr noundef %89)
          to label %92 unwind label %130, !dbg !6151

92:                                               ; preds = %84
  invoke void @__cxa_end_catch()
          to label %93 unwind label %64, !dbg !6152

93:                                               ; preds = %92
  br label %94, !dbg !6152

94:                                               ; preds = %93, %115
  br label %153, !dbg !6153

95:                                               ; preds = %76
  %96 = call i32 @llvm.eh.typeid.for.p0(ptr @_ZTISt16invalid_argument) #3, !dbg !6137
  %97 = icmp eq i32 %77, %96, !dbg !6137
  br i1 %97, label %98, label %135, !dbg !6137

98:                                               ; preds = %95
    #dbg_declare(ptr %20, !6154, !DIExpression(), !6157)
  %99 = load ptr, ptr %14, align 8, !dbg !6137
  %100 = call ptr @__cxa_begin_catch(ptr %99) #3, !dbg !6137
  store ptr %100, ptr %20, align 8, !dbg !6137
  %101 = call noundef ptr @_ZNKSt3__110unique_ptrINS_6vectorIiNS_9allocatorIiEEEENS_14default_deleteIS4_EEEptB8ne210000Ev(ptr noundef nonnull align 8 dereferenceable(8) %16) #3, !dbg !6158
  store i32 778, ptr %21, align 4, !dbg !6159
  invoke void @_ZNSt3__16vectorIiNS_9allocatorIiEEE9push_backB8ne210000EOi(ptr noundef nonnull align 8 dereferenceable(24) %101, ptr noundef nonnull align 4 dereferenceable(4) %21)
          to label %102 unwind label %116, !dbg !6160

102:                                              ; preds = %98
  %103 = load ptr, ptr %20, align 8, !dbg !6161, !nonnull !103, !align !5989
  %104 = load ptr, ptr %103, align 8, !dbg !6162
  %105 = getelementptr inbounds ptr, ptr %104, i64 2, !dbg !6162
  %106 = load ptr, ptr %105, align 8, !dbg !6162
  %107 = call noundef ptr %106(ptr noundef nonnull align 8 dereferenceable(16) %103) #3, !dbg !6162
  invoke void @_ZNSt3__112basic_stringIcNS_11char_traitsIcEENS_9allocatorIcEEEC2B8ne210000ILi0EEEPKc(ptr noundef nonnull align 8 dereferenceable(24) %23, ptr noundef %107)
          to label %108 unwind label %116, !dbg !6163

108:                                              ; preds = %102
  invoke void @_ZNSt3__1plB8ne210000IcNS_11char_traitsIcEENS_9allocatorIcEEEENS_12basic_stringIT_T0_T1_EEPKS6_OS9_(ptr dead_on_unwind writable sret(%"class.std::__1::basic_string") align 8 %22, ptr noundef @.str.13, ptr noundef nonnull align 8 dereferenceable(24) %23)
          to label %109 unwind label %120, !dbg !6164

109:                                              ; preds = %108
  %110 = load ptr, ptr %12, align 8, !dbg !6165, !nonnull !103, !align !5989
  %111 = call noundef nonnull align 8 dereferenceable(24) ptr @_ZNSt3__112basic_stringIcNS_11char_traitsIcEENS_9allocatorIcEEEaSB8ne210000EOS5_(ptr noundef nonnull align 8 dereferenceable(24) %110, ptr noundef nonnull align 8 dereferenceable(24) %22) #3, !dbg !6166
  call void @_ZNSt3__112basic_stringIcNS_11char_traitsIcEENS_9allocatorIcEEED1Ev(ptr noundef nonnull align 8 dereferenceable(24) %22) #3, !dbg !6165
  call void @_ZNSt3__112basic_stringIcNS_11char_traitsIcEENS_9allocatorIcEEED1Ev(ptr noundef nonnull align 8 dereferenceable(24) %23) #3, !dbg !6165
  %112 = call ptr @__cxa_allocate_exception(i64 16) #3, !dbg !6167
  %113 = load ptr, ptr %12, align 8, !dbg !6168, !nonnull !103, !align !5989
  invoke void @_ZN17MyCustomExceptionC2ERKNSt3__112basic_stringIcNS0_11char_traitsIcEENS0_9allocatorIcEEEE(ptr noundef nonnull align 8 dereferenceable(16) %112, ptr noundef nonnull align 8 dereferenceable(24) %113)
          to label %114 unwind label %124, !dbg !6169

114:                                              ; preds = %109
  invoke void @__cxa_throw(ptr %112, ptr @_ZTI17MyCustomException, ptr @_ZN17MyCustomExceptionD2Ev) #17
          to label %218 unwind label %116, !dbg !6167

115:                                              ; preds = %50
  br label %94, !dbg !6137

116:                                              ; preds = %114, %102, %98
  %117 = landingpad { ptr, i32 }
          cleanup
          catch ptr @_ZTI17MyCustomException
          catch ptr @_ZTISt9exception, !dbg !6170
  %118 = extractvalue { ptr, i32 } %117, 0, !dbg !6170
  store ptr %118, ptr %14, align 8, !dbg !6170
  %119 = extractvalue { ptr, i32 } %117, 1, !dbg !6170
  store i32 %119, ptr %15, align 4, !dbg !6170
  br label %128, !dbg !6170

120:                                              ; preds = %108
  %121 = landingpad { ptr, i32 }
          cleanup
          catch ptr @_ZTI17MyCustomException
          catch ptr @_ZTISt9exception, !dbg !6170
  %122 = extractvalue { ptr, i32 } %121, 0, !dbg !6170
  store ptr %122, ptr %14, align 8, !dbg !6170
  %123 = extractvalue { ptr, i32 } %121, 1, !dbg !6170
  store i32 %123, ptr %15, align 4, !dbg !6170
  call void @_ZNSt3__112basic_stringIcNS_11char_traitsIcEENS_9allocatorIcEEED1Ev(ptr noundef nonnull align 8 dereferenceable(24) %23) #3, !dbg !6165
  br label %128, !dbg !6165

124:                                              ; preds = %109
  %125 = landingpad { ptr, i32 }
          cleanup
          catch ptr @_ZTI17MyCustomException
          catch ptr @_ZTISt9exception, !dbg !6170
  %126 = extractvalue { ptr, i32 } %125, 0, !dbg !6170
  store ptr %126, ptr %14, align 8, !dbg !6170
  %127 = extractvalue { ptr, i32 } %125, 1, !dbg !6170
  store i32 %127, ptr %15, align 4, !dbg !6170
  call void @__cxa_free_exception(ptr %112) #3, !dbg !6167
  br label %128, !dbg !6167

128:                                              ; preds = %124, %120, %116
  invoke void @__cxa_end_catch()
          to label %129 unwind label %215, !dbg !6142

129:                                              ; preds = %128
  br label %135, !dbg !6142

130:                                              ; preds = %84, %80
  %131 = landingpad { ptr, i32 }
          cleanup
          catch ptr @_ZTI17MyCustomException
          catch ptr @_ZTISt9exception, !dbg !6171
  %132 = extractvalue { ptr, i32 } %131, 0, !dbg !6171
  store ptr %132, ptr %14, align 8, !dbg !6171
  %133 = extractvalue { ptr, i32 } %131, 1, !dbg !6171
  store i32 %133, ptr %15, align 4, !dbg !6171
  invoke void @__cxa_end_catch()
          to label %134 unwind label %215, !dbg !6152

134:                                              ; preds = %130
  br label %135, !dbg !6152

135:                                              ; preds = %134, %129, %95, %64
  %136 = load i32, ptr %15, align 4, !dbg !6153
  %137 = call i32 @llvm.eh.typeid.for.p0(ptr @_ZTI17MyCustomException) #3, !dbg !6153
  %138 = icmp eq i32 %136, %137, !dbg !6153
  br i1 %138, label %139, label %178, !dbg !6153

139:                                              ; preds = %135
    #dbg_declare(ptr %28, !6172, !DIExpression(), !6175)
  %140 = load ptr, ptr %14, align 8, !dbg !6176
  %141 = call ptr @__cxa_begin_catch(ptr %140) #3, !dbg !6176
  store ptr %141, ptr %28, align 8, !dbg !6176
  %142 = call noundef ptr @_ZNKSt3__110unique_ptrINS_6vectorIiNS_9allocatorIiEEEENS_14default_deleteIS4_EEEptB8ne210000Ev(ptr noundef nonnull align 8 dereferenceable(8) %16) #3, !dbg !6178
  store i32 888, ptr %29, align 4, !dbg !6180
  invoke void @_ZNSt3__16vectorIiNS_9allocatorIiEEE9push_backB8ne210000EOi(ptr noundef nonnull align 8 dereferenceable(24) %142, ptr noundef nonnull align 4 dereferenceable(4) %29)
          to label %143 unwind label %201, !dbg !6181

143:                                              ; preds = %139
  %144 = load ptr, ptr %28, align 8, !dbg !6182, !nonnull !103, !align !5989
  %145 = load ptr, ptr %144, align 8, !dbg !6183
  %146 = getelementptr inbounds ptr, ptr %145, i64 2, !dbg !6183
  %147 = load ptr, ptr %146, align 8, !dbg !6183
  %148 = call noundef ptr %147(ptr noundef nonnull align 8 dereferenceable(16) %144) #3, !dbg !6183
  %149 = load ptr, ptr %12, align 8, !dbg !6184, !nonnull !103, !align !5989
  %150 = invoke noundef nonnull align 8 dereferenceable(24) ptr @_ZNSt3__112basic_stringIcNS_11char_traitsIcEENS_9allocatorIcEEEaSB8ne210000EPKc(ptr noundef nonnull align 8 dereferenceable(24) %149, ptr noundef %148)
          to label %151 unwind label %201, !dbg !6185

151:                                              ; preds = %143
  invoke void @__cxa_end_catch()
          to label %152 unwind label %60, !dbg !6186

152:                                              ; preds = %151
  br label %153, !dbg !6186

153:                                              ; preds = %152, %195, %94
    #dbg_declare(ptr %30, !6187, !DIExpression(), !6189)
  store i64 0, ptr %30, align 8, !dbg !6189
  br label %154, !dbg !6190

154:                                              ; preds = %175, %153
  %155 = load i64, ptr %30, align 8, !dbg !6191
  %156 = call noundef ptr @_ZNKSt3__110unique_ptrINS_6vectorIiNS_9allocatorIiEEEENS_14default_deleteIS4_EEEptB8ne210000Ev(ptr noundef nonnull align 8 dereferenceable(8) %16) #3, !dbg !6193
  %157 = call noundef i64 @_ZNKSt3__16vectorIiNS_9allocatorIiEEE4sizeB8ne210000Ev(ptr noundef nonnull align 8 dereferenceable(24) %156) #3, !dbg !6194
  %158 = icmp ult i64 %155, %157, !dbg !6195
  br i1 %158, label %159, label %206, !dbg !6196

159:                                              ; preds = %154
  %160 = call noundef nonnull align 8 dereferenceable(24) ptr @_ZNKSt3__110unique_ptrINS_6vectorIiNS_9allocatorIiEEEENS_14default_deleteIS4_EEEdeB8ne210000Ev(ptr noundef nonnull align 8 dereferenceable(8) %16) #3, !dbg !6197
  %161 = load i64, ptr %30, align 8, !dbg !6199
  %162 = call noundef nonnull align 4 dereferenceable(4) ptr @_ZNSt3__16vectorIiNS_9allocatorIiEEEixB8ne210000Em(ptr noundef nonnull align 8 dereferenceable(24) %160, i64 noundef %161) #3, !dbg !6200
  %163 = load i32, ptr %162, align 4, !dbg !6200
  %164 = invoke noundef nonnull align 8 dereferenceable(8) ptr @_ZNSt3__113basic_ostreamIcNS_11char_traitsIcEEElsEi(ptr noundef nonnull align 8 dereferenceable(8) %13, i32 noundef %163)
          to label %165 unwind label %60, !dbg !6201

165:                                              ; preds = %159
  %166 = load i64, ptr %30, align 8, !dbg !6202
  %167 = call noundef ptr @_ZNKSt3__110unique_ptrINS_6vectorIiNS_9allocatorIiEEEENS_14default_deleteIS4_EEEptB8ne210000Ev(ptr noundef nonnull align 8 dereferenceable(8) %16) #3, !dbg !6203
  %168 = call noundef i64 @_ZNKSt3__16vectorIiNS_9allocatorIiEEE4sizeB8ne210000Ev(ptr noundef nonnull align 8 dereferenceable(24) %167) #3, !dbg !6204
  %169 = sub i64 %168, 1, !dbg !6205
  %170 = icmp eq i64 %166, %169, !dbg !6206
  %171 = zext i1 %170 to i64, !dbg !6202
  %172 = select i1 %170, ptr @.str.14, ptr @.str.15, !dbg !6202
  %173 = invoke noundef nonnull align 8 dereferenceable(8) ptr @_ZNSt3__1lsB8ne210000INS_11char_traitsIcEEEERNS_13basic_ostreamIcT_EES6_PKc(ptr noundef nonnull align 8 dereferenceable(8) %164, ptr noundef %172)
          to label %174 unwind label %60, !dbg !6207

174:                                              ; preds = %165
  br label %175, !dbg !6208

175:                                              ; preds = %174
  %176 = load i64, ptr %30, align 8, !dbg !6209
  %177 = add i64 %176, 1, !dbg !6209
  store i64 %177, ptr %30, align 8, !dbg !6209
  br label %154, !dbg !6210, !llvm.loop !6211

178:                                              ; preds = %135
  %179 = call i32 @llvm.eh.typeid.for.p0(ptr @_ZTISt9exception) #3, !dbg !6153
  %180 = icmp eq i32 %136, %179, !dbg !6153
  br i1 %180, label %181, label %208, !dbg !6153

181:                                              ; preds = %178
    #dbg_declare(ptr %26, !6214, !DIExpression(), !6217)
  %182 = load ptr, ptr %14, align 8, !dbg !6153
  %183 = call ptr @__cxa_begin_catch(ptr %182) #3, !dbg !6153
  store ptr %183, ptr %26, align 8, !dbg !6153
  %184 = call noundef ptr @_ZNKSt3__110unique_ptrINS_6vectorIiNS_9allocatorIiEEEENS_14default_deleteIS4_EEEptB8ne210000Ev(ptr noundef nonnull align 8 dereferenceable(8) %16) #3, !dbg !6218
  store i32 999, ptr %27, align 4, !dbg !6219
  invoke void @_ZNSt3__16vectorIiNS_9allocatorIiEEE9push_backB8ne210000EOi(ptr noundef nonnull align 8 dereferenceable(24) %184, ptr noundef nonnull align 4 dereferenceable(4) %27)
          to label %185 unwind label %196, !dbg !6220

185:                                              ; preds = %181
  %186 = load ptr, ptr %26, align 8, !dbg !6221, !nonnull !103, !align !5989
  %187 = load ptr, ptr %186, align 8, !dbg !6222
  %188 = getelementptr inbounds ptr, ptr %187, i64 2, !dbg !6222
  %189 = load ptr, ptr %188, align 8, !dbg !6222
  %190 = call noundef ptr %189(ptr noundef nonnull align 8 dereferenceable(8) %186) #3, !dbg !6222
  %191 = load ptr, ptr %12, align 8, !dbg !6223, !nonnull !103, !align !5989
  %192 = invoke noundef nonnull align 8 dereferenceable(24) ptr @_ZNSt3__112basic_stringIcNS_11char_traitsIcEENS_9allocatorIcEEEaSB8ne210000EPKc(ptr noundef nonnull align 8 dereferenceable(24) %191, ptr noundef %190)
          to label %193 unwind label %196, !dbg !6224

193:                                              ; preds = %185
  %194 = load ptr, ptr %11, align 8, !dbg !6225, !nonnull !103
  store i8 0, ptr %194, align 1, !dbg !6226
  invoke void @__cxa_end_catch()
          to label %195 unwind label %60, !dbg !6176

195:                                              ; preds = %193
  br label %153, !dbg !6176

196:                                              ; preds = %185, %181
  %197 = landingpad { ptr, i32 }
          cleanup, !dbg !6227
  %198 = extractvalue { ptr, i32 } %197, 0, !dbg !6227
  store ptr %198, ptr %14, align 8, !dbg !6227
  %199 = extractvalue { ptr, i32 } %197, 1, !dbg !6227
  store i32 %199, ptr %15, align 4, !dbg !6227
  invoke void @__cxa_end_catch()
          to label %200 unwind label %215, !dbg !6176

200:                                              ; preds = %196
  br label %208, !dbg !6176

201:                                              ; preds = %143, %139
  %202 = landingpad { ptr, i32 }
          cleanup, !dbg !6228
  %203 = extractvalue { ptr, i32 } %202, 0, !dbg !6228
  store ptr %203, ptr %14, align 8, !dbg !6228
  %204 = extractvalue { ptr, i32 } %202, 1, !dbg !6228
  store i32 %204, ptr %15, align 4, !dbg !6228
  invoke void @__cxa_end_catch()
          to label %205 unwind label %215, !dbg !6186

205:                                              ; preds = %201
  br label %208, !dbg !6186

206:                                              ; preds = %154
  invoke void @_ZNKSt3__119basic_ostringstreamIcNS_11char_traitsIcEENS_9allocatorIcEEE3strB8ne210000Ev(ptr dead_on_unwind writable sret(%"class.std::__1::basic_string") align 8 %0, ptr noundef nonnull align 8 dereferenceable(112) %13)
          to label %207 unwind label %60, !dbg !6229

207:                                              ; preds = %206
  call void @_ZNSt3__110unique_ptrINS_6vectorIiNS_9allocatorIiEEEENS_14default_deleteIS4_EEED2B8ne210000Ev(ptr noundef nonnull align 8 dereferenceable(8) %16) #3, !dbg !6133
  call void @_ZNSt3__119basic_ostringstreamIcNS_11char_traitsIcEENS_9allocatorIcEEED1Ev(ptr noundef nonnull align 8 dereferenceable(112) %13) #3, !dbg !6133
  ret void, !dbg !6133

208:                                              ; preds = %205, %200, %178, %60
  call void @_ZNSt3__110unique_ptrINS_6vectorIiNS_9allocatorIiEEEENS_14default_deleteIS4_EEED2B8ne210000Ev(ptr noundef nonnull align 8 dereferenceable(8) %16) #3, !dbg !6133
  br label %209, !dbg !6133

209:                                              ; preds = %208, %56
  call void @_ZNSt3__119basic_ostringstreamIcNS_11char_traitsIcEENS_9allocatorIcEEED1Ev(ptr noundef nonnull align 8 dereferenceable(112) %13) #3, !dbg !6133
  br label %210, !dbg !6133

210:                                              ; preds = %209
  %211 = load ptr, ptr %14, align 8, !dbg !6133
  %212 = load i32, ptr %15, align 4, !dbg !6133
  %213 = insertvalue { ptr, i32 } poison, ptr %211, 0, !dbg !6133
  %214 = insertvalue { ptr, i32 } %213, i32 %212, 1, !dbg !6133
  resume { ptr, i32 } %214, !dbg !6133

215:                                              ; preds = %201, %196, %130, %128
  %216 = landingpad { ptr, i32 }
          catch ptr null, !dbg !6142
  %217 = extractvalue { ptr, i32 } %216, 0, !dbg !6142
  call void @__clang_call_terminate(ptr %217) #18, !dbg !6142
  unreachable, !dbg !6142

218:                                              ; preds = %114, %55
  unreachable
}

; Function Attrs: mustprogress noinline optnone uwtable
define linkonce_odr hidden void @_ZNSt3__119basic_ostringstreamIcNS_11char_traitsIcEENS_9allocatorIcEEEC1B8ne210000Ev(ptr noundef nonnull align 8 dereferenceable(112) %0) unnamed_addr #1 comdat align 2 personality ptr @__gxx_personality_v0 !dbg !6230 {
  %2 = alloca ptr, align 8
  %3 = alloca ptr, align 8
  %4 = alloca i32, align 4
  store ptr %0, ptr %2, align 8
    #dbg_declare(ptr %2, !6235, !DIExpression(), !6237)
  %5 = load ptr, ptr %2, align 8
  %6 = getelementptr inbounds i8, ptr %5, i64 112, !dbg !6238
  call void @_ZNSt3__19basic_iosIcNS_11char_traitsIcEEEC2B8ne210000Ev(ptr noundef nonnull align 8 dereferenceable(148) %6), !dbg !6239
  store ptr getelementptr inbounds inrange(-24, 16) ({ [5 x ptr], [5 x ptr] }, ptr @_ZTVNSt3__119basic_ostringstreamIcNS_11char_traitsIcEENS_9allocatorIcEEEE, i32 0, i32 0, i32 3), ptr %5, align 8, !dbg !6238
  %7 = getelementptr inbounds i8, ptr %5, i64 112, !dbg !6238
  store ptr getelementptr inbounds inrange(-24, 16) ({ [5 x ptr], [5 x ptr] }, ptr @_ZTVNSt3__119basic_ostringstreamIcNS_11char_traitsIcEENS_9allocatorIcEEEE, i32 0, i32 1, i32 3), ptr %7, align 8, !dbg !6238
  %8 = getelementptr inbounds nuw %"class.std::__1::basic_ostringstream", ptr %5, i32 0, i32 1, !dbg !6240
  invoke void @_ZNSt3__113basic_ostreamIcNS_11char_traitsIcEEEC2B8ne210000EPNS_15basic_streambufIcS2_EE(ptr noundef nonnull align 8 dereferenceable(8) %5, ptr noundef getelementptr inbounds ([4 x ptr], ptr @_ZTTNSt3__119basic_ostringstreamIcNS_11char_traitsIcEENS_9allocatorIcEEEE, i64 0, i64 1), ptr noundef %8)
          to label %9 unwind label %13, !dbg !6241

9:                                                ; preds = %1
  store ptr getelementptr inbounds inrange(-24, 16) ({ [5 x ptr], [5 x ptr] }, ptr @_ZTVNSt3__119basic_ostringstreamIcNS_11char_traitsIcEENS_9allocatorIcEEEE, i32 0, i32 0, i32 3), ptr %5, align 8, !dbg !6238
  %10 = getelementptr inbounds i8, ptr %5, i64 112, !dbg !6238
  store ptr getelementptr inbounds inrange(-24, 16) ({ [5 x ptr], [5 x ptr] }, ptr @_ZTVNSt3__119basic_ostringstreamIcNS_11char_traitsIcEENS_9allocatorIcEEEE, i32 0, i32 1, i32 3), ptr %10, align 8, !dbg !6238
  %11 = getelementptr inbounds nuw %"class.std::__1::basic_ostringstream", ptr %5, i32 0, i32 1, !dbg !6242
  invoke void @_ZNSt3__115basic_stringbufIcNS_11char_traitsIcEENS_9allocatorIcEEEC2B8ne210000Ej(ptr noundef nonnull align 8 dereferenceable(100) %11, i32 noundef 16)
          to label %12 unwind label %17, !dbg !6242

12:                                               ; preds = %9
  ret void, !dbg !6243

13:                                               ; preds = %1
  %14 = landingpad { ptr, i32 }
          cleanup, !dbg !6243
  %15 = extractvalue { ptr, i32 } %14, 0, !dbg !6243
  store ptr %15, ptr %3, align 8, !dbg !6243
  %16 = extractvalue { ptr, i32 } %14, 1, !dbg !6243
  store i32 %16, ptr %4, align 4, !dbg !6243
  br label %21, !dbg !6243

17:                                               ; preds = %9
  %18 = landingpad { ptr, i32 }
          cleanup, !dbg !6243
  %19 = extractvalue { ptr, i32 } %18, 0, !dbg !6243
  store ptr %19, ptr %3, align 8, !dbg !6243
  %20 = extractvalue { ptr, i32 } %18, 1, !dbg !6243
  store i32 %20, ptr %4, align 4, !dbg !6243
  call void @_ZNSt3__113basic_ostreamIcNS_11char_traitsIcEEED2Ev(ptr noundef nonnull align 8 dereferenceable(8) %5, ptr noundef getelementptr inbounds ([4 x ptr], ptr @_ZTTNSt3__119basic_ostringstreamIcNS_11char_traitsIcEENS_9allocatorIcEEEE, i64 0, i64 1)) #3, !dbg !6244
  br label %21, !dbg !6244

21:                                               ; preds = %17, %13
  %22 = getelementptr inbounds i8, ptr %5, i64 112, !dbg !6244
  call void @_ZNSt3__19basic_iosIcNS_11char_traitsIcEEED2Ev(ptr noundef nonnull align 8 dereferenceable(148) %22) #3, !dbg !6244
  br label %23, !dbg !6244

23:                                               ; preds = %21
  %24 = load ptr, ptr %3, align 8, !dbg !6244
  %25 = load i32, ptr %4, align 4, !dbg !6244
  %26 = insertvalue { ptr, i32 } poison, ptr %24, 0, !dbg !6244
  %27 = insertvalue { ptr, i32 } %26, i32 %25, 1, !dbg !6244
  resume { ptr, i32 } %27, !dbg !6244
}

; Function Attrs: mustprogress noinline optnone uwtable
define linkonce_odr hidden noundef nonnull align 8 dereferenceable(24) ptr @_ZNSt3__112basic_stringIcNS_11char_traitsIcEENS_9allocatorIcEEEaSB8ne210000EPKc(ptr noundef nonnull align 8 dereferenceable(24) %0, ptr noundef %1) #1 comdat align 2 !dbg !6246 {
  %3 = alloca ptr, align 8
  %4 = alloca ptr, align 8
  store ptr %0, ptr %3, align 8
    #dbg_declare(ptr %3, !6247, !DIExpression(), !6248)
  store ptr %1, ptr %4, align 8
    #dbg_declare(ptr %4, !6249, !DIExpression(), !6250)
  %5 = load ptr, ptr %3, align 8
  %6 = load ptr, ptr %4, align 8, !dbg !6251
  %7 = call noundef nonnull align 8 dereferenceable(24) ptr @_ZNSt3__112basic_stringIcNS_11char_traitsIcEENS_9allocatorIcEEE6assignEPKc(ptr noundef nonnull align 8 dereferenceable(24) %5, ptr noundef %6), !dbg !6252
  ret ptr %7, !dbg !6253
}

declare i32 @__gxx_personality_v0(...)

; Function Attrs: mustprogress noinline optnone uwtable
define linkonce_odr hidden void @_ZNSt3__111make_uniqueB8ne210000INS_6vectorIiNS_9allocatorIiEEEEJETnNS_9enable_ifIXntsr8is_arrayIT_EE5valueEiE4typeELi0EEENS_10unique_ptrIS6_NS_14default_deleteIS6_EEEEDpOT0_(ptr dead_on_unwind noalias writable sret(%"class.std::__1::unique_ptr") align 8 %0) #1 comdat !dbg !6254 {
  %2 = alloca ptr, align 8
  store ptr %0, ptr %2, align 8
  %3 = call noalias noundef nonnull ptr @_Znwm(i64 noundef 24) #19, !dbg !6259, !heapallocsite !863
  call void @_ZNSt3__16vectorIiNS_9allocatorIiEEEC2B8ne210000Ev(ptr noundef nonnull align 8 dereferenceable(24) %3) #3, !dbg !6260
  call void @_ZNSt3__110unique_ptrINS_6vectorIiNS_9allocatorIiEEEENS_14default_deleteIS4_EEEC2B8ne210000ILb1EvEEPS4_(ptr noundef nonnull align 8 dereferenceable(8) %0, ptr noundef %3) #3, !dbg !6261
  ret void, !dbg !6262
}

; Function Attrs: mustprogress noinline nounwind optnone uwtable
define linkonce_odr hidden noundef ptr @_ZNKSt3__110unique_ptrINS_6vectorIiNS_9allocatorIiEEEENS_14default_deleteIS4_EEEptB8ne210000Ev(ptr noundef nonnull align 8 dereferenceable(8) %0) #4 comdat align 2 !dbg !6263 {
  %2 = alloca ptr, align 8
  store ptr %0, ptr %2, align 8
    #dbg_declare(ptr %2, !6264, !DIExpression(), !6266)
  %3 = load ptr, ptr %2, align 8
  %4 = getelementptr inbounds nuw %"class.std::__1::unique_ptr", ptr %3, i32 0, i32 0, !dbg !6267
  %5 = load ptr, ptr %4, align 8, !dbg !6267
  ret ptr %5, !dbg !6268
}

; Function Attrs: mustprogress noinline optnone uwtable
define linkonce_odr hidden void @_ZNSt3__16vectorIiNS_9allocatorIiEEE9push_backB8ne210000ERKi(ptr noundef nonnull align 8 dereferenceable(24) %0, ptr noundef nonnull align 4 dereferenceable(4) %1) #1 comdat align 2 !dbg !6269 {
  %3 = alloca ptr, align 8
  %4 = alloca ptr, align 8
  store ptr %0, ptr %3, align 8
    #dbg_declare(ptr %3, !6270, !DIExpression(), !6271)
  store ptr %1, ptr %4, align 8
    #dbg_declare(ptr %4, !6272, !DIExpression(), !6273)
  %5 = load ptr, ptr %3, align 8
  %6 = load ptr, ptr %4, align 8, !dbg !6274, !nonnull !103, !align !6275
  %7 = call noundef nonnull align 4 dereferenceable(4) ptr @_ZNSt3__16vectorIiNS_9allocatorIiEEE12emplace_backIJRKiEEERiDpOT_(ptr noundef nonnull align 8 dereferenceable(24) %5, ptr noundef nonnull align 4 dereferenceable(4) %6), !dbg !6276
  ret void, !dbg !6277
}

; Function Attrs: mustprogress noinline optnone uwtable
define linkonce_odr hidden void @_ZNSt3__16vectorIiNS_9allocatorIiEEE9push_backB8ne210000EOi(ptr noundef nonnull align 8 dereferenceable(24) %0, ptr noundef nonnull align 4 dereferenceable(4) %1) #1 comdat align 2 !dbg !6278 {
  %3 = alloca ptr, align 8
  %4 = alloca ptr, align 8
  store ptr %0, ptr %3, align 8
    #dbg_declare(ptr %3, !6279, !DIExpression(), !6280)
  store ptr %1, ptr %4, align 8
    #dbg_declare(ptr %4, !6281, !DIExpression(), !6282)
  %5 = load ptr, ptr %3, align 8
  %6 = load ptr, ptr %4, align 8, !dbg !6283, !nonnull !103, !align !6275
  %7 = call noundef nonnull align 4 dereferenceable(4) ptr @_ZNSt3__16vectorIiNS_9allocatorIiEEE12emplace_backIJiEEERiDpOT_(ptr noundef nonnull align 8 dereferenceable(24) %5, ptr noundef nonnull align 4 dereferenceable(4) %6), !dbg !6284
  ret void, !dbg !6285
}

; Function Attrs: mustprogress noinline optnone uwtable
define linkonce_odr dso_local noundef i32 @_Z12process_dataIiET_S0_(i32 noundef %0) #1 comdat personality ptr @__gxx_personality_v0 !dbg !6286 {
  %2 = alloca i32, align 4
  %3 = alloca %"class.std::__1::basic_string", align 8
  %4 = alloca ptr, align 8
  %5 = alloca i32, align 4
  %6 = alloca i1, align 1
  store i32 %0, ptr %2, align 4
    #dbg_declare(ptr %2, !6289, !DIExpression(), !6290)
  %7 = load i32, ptr %2, align 4, !dbg !6291
  %8 = icmp slt i32 %7, 0, !dbg !6295
  br i1 %8, label %9, label %25, !dbg !6295

9:                                                ; preds = %1
  store i1 true, ptr %6, align 1
  %10 = call ptr @__cxa_allocate_exception(i64 16) #3, !dbg !6296
  invoke void @_ZNSt3__112basic_stringIcNS_11char_traitsIcEENS_9allocatorIcEEEC2B8ne210000ILi0EEEPKc(ptr noundef nonnull align 8 dereferenceable(24) %3, ptr noundef @.str.40)
          to label %11 unwind label %13, !dbg !6298

11:                                               ; preds = %9
  invoke void @_ZN17MyCustomExceptionC2ERKNSt3__112basic_stringIcNS0_11char_traitsIcEENS0_9allocatorIcEEEE(ptr noundef nonnull align 8 dereferenceable(16) %10, ptr noundef nonnull align 8 dereferenceable(24) %3)
          to label %12 unwind label %17, !dbg !6299

12:                                               ; preds = %11
  store i1 false, ptr %6, align 1, !dbg !6296
  invoke void @__cxa_throw(ptr %10, ptr @_ZTI17MyCustomException, ptr @_ZN17MyCustomExceptionD2Ev) #17
          to label %34 unwind label %17, !dbg !6296

13:                                               ; preds = %9
  %14 = landingpad { ptr, i32 }
          cleanup, !dbg !6300
  %15 = extractvalue { ptr, i32 } %14, 0, !dbg !6300
  store ptr %15, ptr %4, align 8, !dbg !6300
  %16 = extractvalue { ptr, i32 } %14, 1, !dbg !6300
  store i32 %16, ptr %5, align 4, !dbg !6300
  br label %21, !dbg !6300

17:                                               ; preds = %12, %11
  %18 = landingpad { ptr, i32 }
          cleanup, !dbg !6300
  %19 = extractvalue { ptr, i32 } %18, 0, !dbg !6300
  store ptr %19, ptr %4, align 8, !dbg !6300
  %20 = extractvalue { ptr, i32 } %18, 1, !dbg !6300
  store i32 %20, ptr %5, align 4, !dbg !6300
  call void @_ZNSt3__112basic_stringIcNS_11char_traitsIcEENS_9allocatorIcEEED1Ev(ptr noundef nonnull align 8 dereferenceable(24) %3) #3, !dbg !6296
  br label %21, !dbg !6296

21:                                               ; preds = %17, %13
  %22 = load i1, ptr %6, align 1, !dbg !6296
  br i1 %22, label %23, label %24, !dbg !6296

23:                                               ; preds = %21
  call void @__cxa_free_exception(ptr %10) #3, !dbg !6296
  br label %24, !dbg !6296

24:                                               ; preds = %23, %21
  br label %29, !dbg !6296

25:                                               ; preds = %1
  %26 = load i32, ptr %2, align 4, !dbg !6301
  %27 = mul nsw i32 %26, 2, !dbg !6301
  store i32 %27, ptr %2, align 4, !dbg !6301
  %28 = load i32, ptr %2, align 4, !dbg !6302
  ret i32 %28, !dbg !6303

29:                                               ; preds = %24
  %30 = load ptr, ptr %4, align 8, !dbg !6296
  %31 = load i32, ptr %5, align 4, !dbg !6296
  %32 = insertvalue { ptr, i32 } poison, ptr %30, 0, !dbg !6296
  %33 = insertvalue { ptr, i32 } %32, i32 %31, 1, !dbg !6296
  resume { ptr, i32 } %33, !dbg !6296

34:                                               ; preds = %12
  unreachable
}

; Function Attrs: mustprogress noinline optnone uwtable
define linkonce_odr dso_local noundef double @_Z12process_dataIdET_S0_(double noundef %0) #1 comdat personality ptr @__gxx_personality_v0 !dbg !6304 {
  %2 = alloca double, align 8
  %3 = alloca %"class.std::__1::basic_string", align 8
  %4 = alloca ptr, align 8
  %5 = alloca i32, align 4
  %6 = alloca i1, align 1
  store double %0, ptr %2, align 8
    #dbg_declare(ptr %2, !6309, !DIExpression(), !6310)
  %7 = load double, ptr %2, align 8, !dbg !6311
  %8 = fcmp oeq double %7, 0.000000e+00, !dbg !6316
  br i1 %8, label %9, label %25, !dbg !6316

9:                                                ; preds = %1
  store i1 true, ptr %6, align 1
  %10 = call ptr @__cxa_allocate_exception(i64 16) #3, !dbg !6317
  invoke void @_ZNSt3__112basic_stringIcNS_11char_traitsIcEENS_9allocatorIcEEEC2B8ne210000ILi0EEEPKc(ptr noundef nonnull align 8 dereferenceable(24) %3, ptr noundef @.str.41)
          to label %11 unwind label %13, !dbg !6319

11:                                               ; preds = %9
  invoke void @_ZN22AnotherCustomExceptionC2ERKNSt3__112basic_stringIcNS0_11char_traitsIcEENS0_9allocatorIcEEEE(ptr noundef nonnull align 8 dereferenceable(16) %10, ptr noundef nonnull align 8 dereferenceable(24) %3)
          to label %12 unwind label %17, !dbg !6320

12:                                               ; preds = %11
  store i1 false, ptr %6, align 1, !dbg !6317
  invoke void @__cxa_throw(ptr %10, ptr @_ZTI22AnotherCustomException, ptr @_ZN22AnotherCustomExceptionD2Ev) #17
          to label %34 unwind label %17, !dbg !6317

13:                                               ; preds = %9
  %14 = landingpad { ptr, i32 }
          cleanup, !dbg !6321
  %15 = extractvalue { ptr, i32 } %14, 0, !dbg !6321
  store ptr %15, ptr %4, align 8, !dbg !6321
  %16 = extractvalue { ptr, i32 } %14, 1, !dbg !6321
  store i32 %16, ptr %5, align 4, !dbg !6321
  br label %21, !dbg !6321

17:                                               ; preds = %12, %11
  %18 = landingpad { ptr, i32 }
          cleanup, !dbg !6321
  %19 = extractvalue { ptr, i32 } %18, 0, !dbg !6321
  store ptr %19, ptr %4, align 8, !dbg !6321
  %20 = extractvalue { ptr, i32 } %18, 1, !dbg !6321
  store i32 %20, ptr %5, align 4, !dbg !6321
  call void @_ZNSt3__112basic_stringIcNS_11char_traitsIcEENS_9allocatorIcEEED1Ev(ptr noundef nonnull align 8 dereferenceable(24) %3) #3, !dbg !6317
  br label %21, !dbg !6317

21:                                               ; preds = %17, %13
  %22 = load i1, ptr %6, align 1, !dbg !6317
  br i1 %22, label %23, label %24, !dbg !6317

23:                                               ; preds = %21
  call void @__cxa_free_exception(ptr %10) #3, !dbg !6317
  br label %24, !dbg !6317

24:                                               ; preds = %23, %21
  br label %29, !dbg !6317

25:                                               ; preds = %1
  %26 = load double, ptr %2, align 8, !dbg !6322
  %27 = fadd double %26, 1.500000e+00, !dbg !6322
  store double %27, ptr %2, align 8, !dbg !6322
  %28 = load double, ptr %2, align 8, !dbg !6323
  ret double %28, !dbg !6324

29:                                               ; preds = %24
  %30 = load ptr, ptr %4, align 8, !dbg !6317
  %31 = load i32, ptr %5, align 4, !dbg !6317
  %32 = insertvalue { ptr, i32 } poison, ptr %30, 0, !dbg !6317
  %33 = insertvalue { ptr, i32 } %32, i32 %31, 1, !dbg !6317
  resume { ptr, i32 } %33, !dbg !6317

34:                                               ; preds = %12
  unreachable
}

declare ptr @__cxa_allocate_exception(i64)

; Function Attrs: mustprogress noinline optnone uwtable
define linkonce_odr hidden void @_ZNSt16invalid_argumentC2B8ne210000EPKc(ptr noundef nonnull align 8 dereferenceable(16) %0, ptr noundef %1) unnamed_addr #1 comdat align 2 !dbg !6325 {
  %3 = alloca ptr, align 8
  %4 = alloca ptr, align 8
  store ptr %0, ptr %3, align 8
    #dbg_declare(ptr %3, !6330, !DIExpression(), !6332)
  store ptr %1, ptr %4, align 8
    #dbg_declare(ptr %4, !6333, !DIExpression(), !6334)
  %5 = load ptr, ptr %3, align 8
  %6 = load ptr, ptr %4, align 8, !dbg !6335
  call void @_ZNSt11logic_errorC2EPKc(ptr noundef nonnull align 8 dereferenceable(16) %5, ptr noundef %6), !dbg !6336
  store ptr getelementptr inbounds inrange(-16, 24) ({ [5 x ptr] }, ptr @_ZTVSt16invalid_argument, i32 0, i32 0, i32 2), ptr %5, align 8, !dbg !6337
  ret void, !dbg !6338
}

declare void @__cxa_free_exception(ptr)

; Function Attrs: nounwind
declare void @_ZNSt16invalid_argumentD1Ev(ptr noundef nonnull align 8 dereferenceable(16)) unnamed_addr #2

declare void @__cxa_throw(ptr, ptr, ptr)

; Function Attrs: nounwind memory(none)
declare i32 @llvm.eh.typeid.for.p0(ptr) #5

declare ptr @__cxa_begin_catch(ptr)

; Function Attrs: mustprogress noinline optnone uwtable
define linkonce_odr hidden void @_ZNSt3__1plB8ne210000IcNS_11char_traitsIcEENS_9allocatorIcEEEENS_12basic_stringIT_T0_T1_EEPKS6_OS9_(ptr dead_on_unwind noalias writable sret(%"class.std::__1::basic_string") align 8 %0, ptr noundef %1, ptr noundef nonnull align 8 dereferenceable(24) %2) #1 comdat !dbg !6339 {
  %4 = alloca ptr, align 8
  %5 = alloca ptr, align 8
  %6 = alloca ptr, align 8
  store ptr %0, ptr %4, align 8
  store ptr %1, ptr %5, align 8
    #dbg_declare(ptr %5, !6342, !DIExpression(), !6343)
  store ptr %2, ptr %6, align 8
    #dbg_declare(ptr %6, !6344, !DIExpression(), !6345)
  %7 = load ptr, ptr %6, align 8, !dbg !6346, !nonnull !103, !align !5989
  %8 = load ptr, ptr %5, align 8, !dbg !6347
  %9 = call noundef nonnull align 8 dereferenceable(24) ptr @_ZNSt3__112basic_stringIcNS_11char_traitsIcEENS_9allocatorIcEEE6insertEmPKc(ptr noundef nonnull align 8 dereferenceable(24) %7, i64 noundef 0, ptr noundef %8), !dbg !6348
  call void @_ZNSt3__112basic_stringIcNS_11char_traitsIcEENS_9allocatorIcEEEC2B8ne210000EOS5_(ptr noundef nonnull align 8 dereferenceable(24) %0, ptr noundef nonnull align 8 dereferenceable(24) %9) #3, !dbg !6349
  ret void, !dbg !6350
}

; Function Attrs: mustprogress noinline nounwind optnone uwtable
define linkonce_odr hidden noundef nonnull align 8 dereferenceable(24) ptr @_ZNSt3__112basic_stringIcNS_11char_traitsIcEENS_9allocatorIcEEEaSB8ne210000EOS5_(ptr noundef nonnull align 8 dereferenceable(24) %0, ptr noundef nonnull align 8 dereferenceable(24) %1) #4 comdat align 2 !dbg !6351 {
  %3 = alloca ptr, align 8
  %4 = alloca ptr, align 8
  %5 = alloca %"struct.std::__1::integral_constant.20", align 1
  store ptr %0, ptr %3, align 8
    #dbg_declare(ptr %3, !6352, !DIExpression(), !6353)
  store ptr %1, ptr %4, align 8
    #dbg_declare(ptr %4, !6354, !DIExpression(), !6355)
  %6 = load ptr, ptr %3, align 8
  %7 = load ptr, ptr %4, align 8, !dbg !6356, !nonnull !103, !align !5989
  call void @_ZNSt3__112basic_stringIcNS_11char_traitsIcEENS_9allocatorIcEEE13__move_assignB8ne210000ERS5_NS_17integral_constantIbLb1EEE(ptr noundef nonnull align 8 dereferenceable(24) %6, ptr noundef nonnull align 8 dereferenceable(24) %7) #3, !dbg !6357
  ret ptr %6, !dbg !6358
}

; Function Attrs: mustprogress noinline optnone uwtable
define linkonce_odr dso_local void @_ZN17MyCustomExceptionC2ERKNSt3__112basic_stringIcNS0_11char_traitsIcEENS0_9allocatorIcEEEE(ptr noundef nonnull align 8 dereferenceable(16) %0, ptr noundef nonnull align 8 dereferenceable(24) %1) unnamed_addr #1 comdat align 2 !dbg !6359 {
  %3 = alloca ptr, align 8
  %4 = alloca ptr, align 8
  store ptr %0, ptr %3, align 8
    #dbg_declare(ptr %3, !6360, !DIExpression(), !6362)
  store ptr %1, ptr %4, align 8
    #dbg_declare(ptr %4, !6363, !DIExpression(), !6364)
  %5 = load ptr, ptr %3, align 8
  %6 = load ptr, ptr %4, align 8, !dbg !6365, !nonnull !103, !align !5989
  call void @_ZNSt13runtime_errorC2ERKNSt3__112basic_stringIcNS0_11char_traitsIcEENS0_9allocatorIcEEEE(ptr noundef nonnull align 8 dereferenceable(16) %5, ptr noundef nonnull align 8 dereferenceable(24) %6), !dbg !6366
  store ptr getelementptr inbounds inrange(-16, 24) ({ [5 x ptr] }, ptr @_ZTV17MyCustomException, i32 0, i32 0, i32 2), ptr %5, align 8, !dbg !6367
  ret void, !dbg !6368
}

; Function Attrs: mustprogress noinline nounwind optnone uwtable
define linkonce_odr dso_local void @_ZN17MyCustomExceptionD2Ev(ptr noundef nonnull align 8 dereferenceable(16) %0) unnamed_addr #4 comdat align 2 !dbg !6369 {
  %2 = alloca ptr, align 8
  store ptr %0, ptr %2, align 8
    #dbg_declare(ptr %2, !6373, !DIExpression(), !6374)
  %3 = load ptr, ptr %2, align 8
  call void @_ZNSt13runtime_errorD2Ev(ptr noundef nonnull align 8 dereferenceable(16) %3) #3, !dbg !6375
  ret void, !dbg !6377
}

declare void @__cxa_end_catch()

; Function Attrs: noinline noreturn nounwind uwtable
define linkonce_odr hidden void @__clang_call_terminate(ptr noundef %0) #6 comdat {
  %2 = call ptr @__cxa_begin_catch(ptr %0) #3
  call void @_ZSt9terminatev() #18
  unreachable
}

declare void @_ZSt9terminatev()

; Function Attrs: mustprogress noinline nounwind optnone uwtable
define linkonce_odr hidden noundef i64 @_ZNKSt3__16vectorIiNS_9allocatorIiEEE4sizeB8ne210000Ev(ptr noundef nonnull align 8 dereferenceable(24) %0) #4 comdat align 2 !dbg !6378 {
  %2 = alloca ptr, align 8
  store ptr %0, ptr %2, align 8
    #dbg_declare(ptr %2, !6379, !DIExpression(), !6381)
  %3 = load ptr, ptr %2, align 8
  %4 = getelementptr inbounds nuw %"class.std::__1::vector", ptr %3, i32 0, i32 1, !dbg !6382
  %5 = load ptr, ptr %4, align 8, !dbg !6382
  %6 = getelementptr inbounds nuw %"class.std::__1::vector", ptr %3, i32 0, i32 0, !dbg !6383
  %7 = load ptr, ptr %6, align 8, !dbg !6383
  %8 = ptrtoint ptr %5 to i64, !dbg !6384
  %9 = ptrtoint ptr %7 to i64, !dbg !6384
  %10 = sub i64 %8, %9, !dbg !6384
  %11 = sdiv exact i64 %10, 4, !dbg !6384
  ret i64 %11, !dbg !6385
}

declare noundef nonnull align 8 dereferenceable(8) ptr @_ZNSt3__113basic_ostreamIcNS_11char_traitsIcEEElsEi(ptr noundef nonnull align 8 dereferenceable(8), i32 noundef) #7

; Function Attrs: mustprogress noinline nounwind optnone uwtable
define linkonce_odr hidden noundef nonnull align 8 dereferenceable(24) ptr @_ZNKSt3__110unique_ptrINS_6vectorIiNS_9allocatorIiEEEENS_14default_deleteIS4_EEEdeB8ne210000Ev(ptr noundef nonnull align 8 dereferenceable(8) %0) #4 comdat align 2 !dbg !6386 {
  %2 = alloca ptr, align 8
  store ptr %0, ptr %2, align 8
    #dbg_declare(ptr %2, !6387, !DIExpression(), !6388)
  %3 = load ptr, ptr %2, align 8
  %4 = getelementptr inbounds nuw %"class.std::__1::unique_ptr", ptr %3, i32 0, i32 0, !dbg !6389
  %5 = load ptr, ptr %4, align 8, !dbg !6389
  ret ptr %5, !dbg !6390
}

; Function Attrs: mustprogress noinline nounwind optnone uwtable
define linkonce_odr hidden noundef nonnull align 4 dereferenceable(4) ptr @_ZNSt3__16vectorIiNS_9allocatorIiEEEixB8ne210000Em(ptr noundef nonnull align 8 dereferenceable(24) %0, i64 noundef %1) #4 comdat align 2 !dbg !6391 {
  %3 = alloca ptr, align 8
  %4 = alloca i64, align 8
  store ptr %0, ptr %3, align 8
    #dbg_declare(ptr %3, !6392, !DIExpression(), !6393)
  store i64 %1, ptr %4, align 8
    #dbg_declare(ptr %4, !6394, !DIExpression(), !6395)
  %5 = load ptr, ptr %3, align 8
  %6 = getelementptr inbounds nuw %"class.std::__1::vector", ptr %5, i32 0, i32 0, !dbg !6396
  %7 = load ptr, ptr %6, align 8, !dbg !6396
  %8 = load i64, ptr %4, align 8, !dbg !6397
  %9 = getelementptr inbounds nuw i32, ptr %7, i64 %8, !dbg !6398
  ret ptr %9, !dbg !6399
}

; Function Attrs: mustprogress noinline optnone uwtable
define linkonce_odr hidden void @_ZNKSt3__119basic_ostringstreamIcNS_11char_traitsIcEENS_9allocatorIcEEE3strB8ne210000Ev(ptr dead_on_unwind noalias writable sret(%"class.std::__1::basic_string") align 8 %0, ptr noundef nonnull align 8 dereferenceable(112) %1) #1 comdat align 2 !dbg !6400 {
  %3 = alloca ptr, align 8
  %4 = alloca ptr, align 8
  store ptr %0, ptr %3, align 8
  store ptr %1, ptr %4, align 8
    #dbg_declare(ptr %4, !6407, !DIExpression(), !6409)
  %5 = load ptr, ptr %4, align 8
  %6 = getelementptr inbounds nuw %"class.std::__1::basic_ostringstream", ptr %5, i32 0, i32 1, !dbg !6410
  call void @_ZNKSt3__115basic_stringbufIcNS_11char_traitsIcEENS_9allocatorIcEEE3strEv(ptr dead_on_unwind writable sret(%"class.std::__1::basic_string") align 8 %0, ptr noundef nonnull align 8 dereferenceable(100) %6), !dbg !6411
  ret void, !dbg !6412
}

; Function Attrs: mustprogress noinline nounwind optnone uwtable
define linkonce_odr hidden void @_ZNSt3__110unique_ptrINS_6vectorIiNS_9allocatorIiEEEENS_14default_deleteIS4_EEED2B8ne210000Ev(ptr noundef nonnull align 8 dereferenceable(8) %0) unnamed_addr #4 comdat align 2 !dbg !6413 {
  %2 = alloca ptr, align 8
  store ptr %0, ptr %2, align 8
    #dbg_declare(ptr %2, !6414, !DIExpression(), !6416)
  %3 = load ptr, ptr %2, align 8
  call void @_ZNSt3__110unique_ptrINS_6vectorIiNS_9allocatorIiEEEENS_14default_deleteIS4_EEE5resetB8ne210000EPS4_(ptr noundef nonnull align 8 dereferenceable(8) %3, ptr noundef null) #3, !dbg !6417
  ret void, !dbg !6419
}

; Function Attrs: mustprogress noinline nounwind optnone uwtable
define linkonce_odr dso_local void @_ZNSt3__119basic_ostringstreamIcNS_11char_traitsIcEENS_9allocatorIcEEED1Ev(ptr noundef nonnull align 8 dereferenceable(112) %0) unnamed_addr #4 comdat align 2 !dbg !6420 {
  %2 = alloca ptr, align 8
  store ptr %0, ptr %2, align 8
    #dbg_declare(ptr %2, !6422, !DIExpression(), !6423)
  %3 = load ptr, ptr %2, align 8
  call void @_ZNSt3__119basic_ostringstreamIcNS_11char_traitsIcEENS_9allocatorIcEEED2Ev(ptr noundef nonnull align 8 dereferenceable(112) %3, ptr noundef @_ZTTNSt3__119basic_ostringstreamIcNS_11char_traitsIcEENS_9allocatorIcEEEE) #3, !dbg !6424
  %4 = getelementptr inbounds i8, ptr %3, i64 112, !dbg !6424
  call void @_ZNSt3__19basic_iosIcNS_11char_traitsIcEEED2Ev(ptr noundef nonnull align 8 dereferenceable(148) %4) #3, !dbg !6424
  ret void, !dbg !6424
}

; Function Attrs: mustprogress noinline optnone uwtable
define dso_local void @_Z26string_manipulator_checkedNSt3__112basic_stringIcNS_11char_traitsIcEENS_9allocatorIcEEEES5_RbRS5_(ptr dead_on_unwind noalias writable sret(%"class.std::__1::basic_string") align 8 %0, ptr noundef %1, ptr noundef %2, ptr noundef nonnull align 1 dereferenceable(1) %3, ptr noundef nonnull align 8 dereferenceable(24) %4) #1 personality ptr @__gxx_personality_v0 !dbg !6425 {
  %6 = alloca ptr, align 8
  %7 = alloca ptr, align 8
  %8 = alloca ptr, align 8
  %9 = alloca ptr, align 8
  %10 = alloca ptr, align 8
  %11 = alloca %"class.std::__1::basic_string", align 8
  %12 = alloca ptr, align 8
  %13 = alloca i32, align 4
  %14 = alloca ptr, align 8
  %15 = alloca i32, align 4
  %16 = alloca ptr, align 8
  store ptr %0, ptr %6, align 8
  store ptr %1, ptr %7, align 8
    #dbg_declare(ptr %7, !6428, !DIExpression(DW_OP_deref), !6429)
  store ptr %2, ptr %8, align 8
    #dbg_declare(ptr %8, !6430, !DIExpression(DW_OP_deref), !6431)
  store ptr %3, ptr %9, align 8
    #dbg_declare(ptr %9, !6432, !DIExpression(), !6433)
  store ptr %4, ptr %10, align 8
    #dbg_declare(ptr %10, !6434, !DIExpression(), !6435)
  %17 = load ptr, ptr %9, align 8, !dbg !6436, !nonnull !103
  store i8 1, ptr %17, align 1, !dbg !6437
  %18 = load ptr, ptr %10, align 8, !dbg !6438, !nonnull !103, !align !5989
  %19 = call noundef nonnull align 8 dereferenceable(24) ptr @_ZNSt3__112basic_stringIcNS_11char_traitsIcEENS_9allocatorIcEEEaSB8ne210000EPKc(ptr noundef nonnull align 8 dereferenceable(24) %18, ptr noundef @.str.11), !dbg !6439
    #dbg_declare(ptr %11, !6440, !DIExpression(), !6441)
  call void @_ZNSt3__112basic_stringIcNS_11char_traitsIcEENS_9allocatorIcEEEC2B8ne210000ILi0EEEPKc(ptr noundef nonnull align 8 dereferenceable(24) %11, ptr noundef @.str.14), !dbg !6442
  %20 = call noundef i64 @_ZNKSt3__112basic_stringIcNS_11char_traitsIcEENS_9allocatorIcEEE6lengthB8ne210000Ev(ptr noundef nonnull align 8 dereferenceable(24) %1) #3, !dbg !6443
  %21 = icmp ult i64 %20, 3, !dbg !6445
  br i1 %21, label %22, label %37, !dbg !6445

22:                                               ; preds = %5
  %23 = load ptr, ptr %10, align 8, !dbg !6446, !nonnull !103, !align !5989
  %24 = invoke noundef nonnull align 8 dereferenceable(24) ptr @_ZNSt3__112basic_stringIcNS_11char_traitsIcEENS_9allocatorIcEEEaSB8ne210000EPKc(ptr noundef nonnull align 8 dereferenceable(24) %23, ptr noundef @.str.16)
          to label %25 unwind label %29, !dbg !6448

25:                                               ; preds = %22
  %26 = call ptr @__cxa_allocate_exception(i64 16) #3, !dbg !6449
  %27 = load ptr, ptr %10, align 8, !dbg !6450, !nonnull !103, !align !5989
  invoke void @_ZNSt12length_errorC2B8ne210000ERKNSt3__112basic_stringIcNS0_11char_traitsIcEENS0_9allocatorIcEEEE(ptr noundef nonnull align 8 dereferenceable(16) %26, ptr noundef nonnull align 8 dereferenceable(24) %27)
          to label %28 unwind label %33, !dbg !6451

28:                                               ; preds = %25
  invoke void @__cxa_throw(ptr %26, ptr @_ZTISt12length_error, ptr @_ZNSt12length_errorD1Ev) #17
          to label %120 unwind label %29, !dbg !6449

29:                                               ; preds = %100, %28, %22
  %30 = landingpad { ptr, i32 }
          cleanup, !dbg !6452
  %31 = extractvalue { ptr, i32 } %30, 0, !dbg !6452
  store ptr %31, ptr %12, align 8, !dbg !6452
  %32 = extractvalue { ptr, i32 } %30, 1, !dbg !6452
  store i32 %32, ptr %13, align 4, !dbg !6452
  br label %111, !dbg !6452

33:                                               ; preds = %25
  %34 = landingpad { ptr, i32 }
          cleanup, !dbg !6452
  %35 = extractvalue { ptr, i32 } %34, 0, !dbg !6452
  store ptr %35, ptr %12, align 8, !dbg !6452
  %36 = extractvalue { ptr, i32 } %34, 1, !dbg !6452
  store i32 %36, ptr %13, align 4, !dbg !6452
  call void @__cxa_free_exception(ptr %26) #3, !dbg !6449
  br label %111, !dbg !6449

37:                                               ; preds = %5
  %38 = invoke noundef nonnull align 8 dereferenceable(24) ptr @_ZNSt3__112basic_stringIcNS_11char_traitsIcEENS_9allocatorIcEEE7replaceB8ne210000EmmRKS5_(ptr noundef nonnull align 8 dereferenceable(24) %1, i64 noundef 1, i64 noundef 2, ptr noundef nonnull align 8 dereferenceable(24) %2)
          to label %39 unwind label %51, !dbg !6453

39:                                               ; preds = %37
  %40 = invoke noundef nonnull align 8 dereferenceable(24) ptr @_ZNSt3__112basic_stringIcNS_11char_traitsIcEENS_9allocatorIcEEEaSERKS5_(ptr noundef nonnull align 8 dereferenceable(24) %11, ptr noundef nonnull align 8 dereferenceable(24) %1)
          to label %41 unwind label %51, !dbg !6455

41:                                               ; preds = %39
  %42 = call noundef i64 @_ZNKSt3__112basic_stringIcNS_11char_traitsIcEENS_9allocatorIcEEE4findEcm(ptr noundef nonnull align 8 dereferenceable(24) %2, i8 noundef signext 88, i64 noundef 0) #3, !dbg !6456
  %43 = icmp ne i64 %42, -1, !dbg !6458
  br i1 %43, label %44, label %102, !dbg !6458

44:                                               ; preds = %41
  %45 = load ptr, ptr %10, align 8, !dbg !6459, !nonnull !103, !align !5989
  %46 = invoke noundef nonnull align 8 dereferenceable(24) ptr @_ZNSt3__112basic_stringIcNS_11char_traitsIcEENS_9allocatorIcEEEaSB8ne210000EPKc(ptr noundef nonnull align 8 dereferenceable(24) %45, ptr noundef @.str.17)
          to label %47 unwind label %55, !dbg !6462

47:                                               ; preds = %44
  %48 = call ptr @__cxa_allocate_exception(i64 16) #3, !dbg !6463
  %49 = load ptr, ptr %10, align 8, !dbg !6464, !nonnull !103, !align !5989
  invoke void @_ZN17MyCustomExceptionC2ERKNSt3__112basic_stringIcNS0_11char_traitsIcEENS0_9allocatorIcEEEE(ptr noundef nonnull align 8 dereferenceable(16) %48, ptr noundef nonnull align 8 dereferenceable(24) %49)
          to label %50 unwind label %59, !dbg !6465

50:                                               ; preds = %47
  invoke void @__cxa_throw(ptr %48, ptr @_ZTI17MyCustomException, ptr @_ZN17MyCustomExceptionD2Ev) #17
          to label %120 unwind label %55, !dbg !6463

51:                                               ; preds = %78, %39, %37
  %52 = landingpad { ptr, i32 }
          cleanup
          catch ptr @_ZTISt12out_of_range, !dbg !6466
  %53 = extractvalue { ptr, i32 } %52, 0, !dbg !6466
  store ptr %53, ptr %12, align 8, !dbg !6466
  %54 = extractvalue { ptr, i32 } %52, 1, !dbg !6466
  store i32 %54, ptr %13, align 4, !dbg !6466
  br label %85, !dbg !6466

55:                                               ; preds = %50, %44
  %56 = landingpad { ptr, i32 }
          cleanup
          catch ptr @_ZTI17MyCustomException
          catch ptr @_ZTISt12out_of_range, !dbg !6467
  %57 = extractvalue { ptr, i32 } %56, 0, !dbg !6467
  store ptr %57, ptr %12, align 8, !dbg !6467
  %58 = extractvalue { ptr, i32 } %56, 1, !dbg !6467
  store i32 %58, ptr %13, align 4, !dbg !6467
  br label %63, !dbg !6467

59:                                               ; preds = %47
  %60 = landingpad { ptr, i32 }
          cleanup
          catch ptr @_ZTI17MyCustomException
          catch ptr @_ZTISt12out_of_range, !dbg !6467
  %61 = extractvalue { ptr, i32 } %60, 0, !dbg !6467
  store ptr %61, ptr %12, align 8, !dbg !6467
  %62 = extractvalue { ptr, i32 } %60, 1, !dbg !6467
  store i32 %62, ptr %13, align 4, !dbg !6467
  call void @__cxa_free_exception(ptr %48) #3, !dbg !6463
  br label %63, !dbg !6463

63:                                               ; preds = %59, %55
  %64 = load i32, ptr %13, align 4, !dbg !6468
  %65 = call i32 @llvm.eh.typeid.for.p0(ptr @_ZTI17MyCustomException) #3, !dbg !6468
  %66 = icmp eq i32 %64, %65, !dbg !6468
  br i1 %66, label %67, label %85, !dbg !6468

67:                                               ; preds = %63
    #dbg_declare(ptr %14, !6469, !DIExpression(), !6470)
  %68 = load ptr, ptr %12, align 8, !dbg !6468
  %69 = call ptr @__cxa_begin_catch(ptr %68) #3, !dbg !6468
  store ptr %69, ptr %14, align 8, !dbg !6468
  %70 = load ptr, ptr %14, align 8, !dbg !6471, !nonnull !103, !align !5989
  %71 = load ptr, ptr %70, align 8, !dbg !6473
  %72 = getelementptr inbounds ptr, ptr %71, i64 2, !dbg !6473
  %73 = load ptr, ptr %72, align 8, !dbg !6473
  %74 = call noundef ptr %73(ptr noundef nonnull align 8 dereferenceable(16) %70) #3, !dbg !6473
  %75 = load ptr, ptr %10, align 8, !dbg !6474, !nonnull !103, !align !5989
  %76 = invoke noundef nonnull align 8 dereferenceable(24) ptr @_ZNSt3__112basic_stringIcNS_11char_traitsIcEENS_9allocatorIcEEEaSB8ne210000EPKc(ptr noundef nonnull align 8 dereferenceable(24) %75, ptr noundef %74)
          to label %77 unwind label %79, !dbg !6475

77:                                               ; preds = %67
  invoke void @_ZNSt3__1plIcNS_11char_traitsIcEENS_9allocatorIcEEEENS_12basic_stringIT_T0_T1_EEPKS6_RKS9_(ptr dead_on_unwind writable sret(%"class.std::__1::basic_string") align 8 %0, ptr noundef @.str.18, ptr noundef nonnull align 8 dereferenceable(24) %1)
          to label %78 unwind label %79, !dbg !6476

78:                                               ; preds = %77
  store i32 1, ptr %15, align 4
  invoke void @__cxa_end_catch()
          to label %83 unwind label %51, !dbg !6477

79:                                               ; preds = %77, %67
  %80 = landingpad { ptr, i32 }
          cleanup
          catch ptr @_ZTISt12out_of_range, !dbg !6478
  %81 = extractvalue { ptr, i32 } %80, 0, !dbg !6478
  store ptr %81, ptr %12, align 8, !dbg !6478
  %82 = extractvalue { ptr, i32 } %80, 1, !dbg !6478
  store i32 %82, ptr %13, align 4, !dbg !6478
  invoke void @__cxa_end_catch()
          to label %84 unwind label %117, !dbg !6477

83:                                               ; preds = %78
  br label %110

84:                                               ; preds = %79
  br label %85, !dbg !6477

85:                                               ; preds = %84, %63, %51
  %86 = load i32, ptr %13, align 4, !dbg !6479
  %87 = call i32 @llvm.eh.typeid.for.p0(ptr @_ZTISt12out_of_range) #3, !dbg !6479
  %88 = icmp eq i32 %86, %87, !dbg !6479
  br i1 %88, label %89, label %111, !dbg !6479

89:                                               ; preds = %85
    #dbg_declare(ptr %16, !6480, !DIExpression(), !6484)
  %90 = load ptr, ptr %12, align 8, !dbg !6479
  %91 = call ptr @__cxa_begin_catch(ptr %90) #3, !dbg !6479
  store ptr %91, ptr %16, align 8, !dbg !6479
  %92 = load ptr, ptr %16, align 8, !dbg !6485, !nonnull !103, !align !5989
  %93 = load ptr, ptr %92, align 8, !dbg !6487
  %94 = getelementptr inbounds ptr, ptr %93, i64 2, !dbg !6487
  %95 = load ptr, ptr %94, align 8, !dbg !6487
  %96 = call noundef ptr %95(ptr noundef nonnull align 8 dereferenceable(16) %92) #3, !dbg !6487
  %97 = load ptr, ptr %10, align 8, !dbg !6488, !nonnull !103, !align !5989
  %98 = invoke noundef nonnull align 8 dereferenceable(24) ptr @_ZNSt3__112basic_stringIcNS_11char_traitsIcEENS_9allocatorIcEEEaSB8ne210000EPKc(ptr noundef nonnull align 8 dereferenceable(24) %97, ptr noundef %96)
          to label %99 unwind label %103, !dbg !6489

99:                                               ; preds = %89
  invoke void @_ZNSt3__112basic_stringIcNS_11char_traitsIcEENS_9allocatorIcEEEC2B8ne210000ILi0EEEPKc(ptr noundef nonnull align 8 dereferenceable(24) %0, ptr noundef @.str.19)
          to label %100 unwind label %103, !dbg !6490

100:                                              ; preds = %99
  store i32 1, ptr %15, align 4
  invoke void @__cxa_end_catch()
          to label %107 unwind label %29, !dbg !6491

101:                                              ; No predecessors!
  br label %102, !dbg !6492

102:                                              ; preds = %101, %41
  br label %109, !dbg !6479

103:                                              ; preds = %99, %89
  %104 = landingpad { ptr, i32 }
          cleanup, !dbg !6493
  %105 = extractvalue { ptr, i32 } %104, 0, !dbg !6493
  store ptr %105, ptr %12, align 8, !dbg !6493
  %106 = extractvalue { ptr, i32 } %104, 1, !dbg !6493
  store i32 %106, ptr %13, align 4, !dbg !6493
  invoke void @__cxa_end_catch()
          to label %108 unwind label %117, !dbg !6491

107:                                              ; preds = %100
  br label %110

108:                                              ; preds = %103
  br label %111, !dbg !6491

109:                                              ; preds = %102
  call void @_ZNSt3__112basic_stringIcNS_11char_traitsIcEENS_9allocatorIcEEEC2B8ne210000EOS5_(ptr noundef nonnull align 8 dereferenceable(24) %0, ptr noundef nonnull align 8 dereferenceable(24) %11) #3, !dbg !6494
  store i32 1, ptr %15, align 4
  br label %110, !dbg !6495

110:                                              ; preds = %109, %107, %83
  call void @_ZNSt3__112basic_stringIcNS_11char_traitsIcEENS_9allocatorIcEEED1Ev(ptr noundef nonnull align 8 dereferenceable(24) %11) #3, !dbg !6496
  ret void, !dbg !6496

111:                                              ; preds = %108, %85, %33, %29
  call void @_ZNSt3__112basic_stringIcNS_11char_traitsIcEENS_9allocatorIcEEED1Ev(ptr noundef nonnull align 8 dereferenceable(24) %11) #3, !dbg !6496
  br label %112, !dbg !6496

112:                                              ; preds = %111
  %113 = load ptr, ptr %12, align 8, !dbg !6496
  %114 = load i32, ptr %13, align 4, !dbg !6496
  %115 = insertvalue { ptr, i32 } poison, ptr %113, 0, !dbg !6496
  %116 = insertvalue { ptr, i32 } %115, i32 %114, 1, !dbg !6496
  resume { ptr, i32 } %116, !dbg !6496

117:                                              ; preds = %103, %79
  %118 = landingpad { ptr, i32 }
          catch ptr null, !dbg !6477
  %119 = extractvalue { ptr, i32 } %118, 0, !dbg !6477
  call void @__clang_call_terminate(ptr %119) #18, !dbg !6477
  unreachable, !dbg !6477

120:                                              ; preds = %50, %28
  unreachable
}

; Function Attrs: mustprogress noinline nounwind optnone uwtable
define linkonce_odr hidden noundef i64 @_ZNKSt3__112basic_stringIcNS_11char_traitsIcEENS_9allocatorIcEEE6lengthB8ne210000Ev(ptr noundef nonnull align 8 dereferenceable(24) %0) #4 comdat align 2 !dbg !6497 {
  %2 = alloca ptr, align 8
  store ptr %0, ptr %2, align 8
    #dbg_declare(ptr %2, !6498, !DIExpression(), !6499)
  %3 = load ptr, ptr %2, align 8
  %4 = call noundef i64 @_ZNKSt3__112basic_stringIcNS_11char_traitsIcEENS_9allocatorIcEEE4sizeB8ne210000Ev(ptr noundef nonnull align 8 dereferenceable(24) %3) #3, !dbg !6500
  ret i64 %4, !dbg !6501
}

; Function Attrs: mustprogress noinline optnone uwtable
define linkonce_odr hidden void @_ZNSt12length_errorC2B8ne210000ERKNSt3__112basic_stringIcNS0_11char_traitsIcEENS0_9allocatorIcEEEE(ptr noundef nonnull align 8 dereferenceable(16) %0, ptr noundef nonnull align 8 dereferenceable(24) %1) unnamed_addr #1 comdat align 2 !dbg !6502 {
  %3 = alloca ptr, align 8
  %4 = alloca ptr, align 8
  store ptr %0, ptr %3, align 8
    #dbg_declare(ptr %3, !6507, !DIExpression(), !6509)
  store ptr %1, ptr %4, align 8
    #dbg_declare(ptr %4, !6510, !DIExpression(), !6511)
  %5 = load ptr, ptr %3, align 8
  %6 = load ptr, ptr %4, align 8, !dbg !6512, !nonnull !103, !align !5989
  call void @_ZNSt11logic_errorC2ERKNSt3__112basic_stringIcNS0_11char_traitsIcEENS0_9allocatorIcEEEE(ptr noundef nonnull align 8 dereferenceable(16) %5, ptr noundef nonnull align 8 dereferenceable(24) %6), !dbg !6513
  store ptr getelementptr inbounds inrange(-16, 24) ({ [5 x ptr] }, ptr @_ZTVSt12length_error, i32 0, i32 0, i32 2), ptr %5, align 8, !dbg !6514
  ret void, !dbg !6515
}

; Function Attrs: nounwind
declare void @_ZNSt12length_errorD1Ev(ptr noundef nonnull align 8 dereferenceable(16)) unnamed_addr #2

; Function Attrs: mustprogress noinline optnone uwtable
define linkonce_odr hidden noundef nonnull align 8 dereferenceable(24) ptr @_ZNSt3__112basic_stringIcNS_11char_traitsIcEENS_9allocatorIcEEE7replaceB8ne210000EmmRKS5_(ptr noundef nonnull align 8 dereferenceable(24) %0, i64 noundef %1, i64 noundef %2, ptr noundef nonnull align 8 dereferenceable(24) %3) #1 comdat align 2 !dbg !6516 {
  %5 = alloca ptr, align 8
  %6 = alloca i64, align 8
  %7 = alloca i64, align 8
  %8 = alloca ptr, align 8
  store ptr %0, ptr %5, align 8
    #dbg_declare(ptr %5, !6517, !DIExpression(), !6518)
  store i64 %1, ptr %6, align 8
    #dbg_declare(ptr %6, !6519, !DIExpression(), !6520)
  store i64 %2, ptr %7, align 8
    #dbg_declare(ptr %7, !6521, !DIExpression(), !6522)
  store ptr %3, ptr %8, align 8
    #dbg_declare(ptr %8, !6523, !DIExpression(), !6524)
  %9 = load ptr, ptr %5, align 8
  %10 = load i64, ptr %6, align 8, !dbg !6525
  %11 = load i64, ptr %7, align 8, !dbg !6526
  %12 = load ptr, ptr %8, align 8, !dbg !6527, !nonnull !103, !align !5989
  %13 = call noundef ptr @_ZNKSt3__112basic_stringIcNS_11char_traitsIcEENS_9allocatorIcEEE4dataB8ne210000Ev(ptr noundef nonnull align 8 dereferenceable(24) %12) #3, !dbg !6528
  %14 = load ptr, ptr %8, align 8, !dbg !6529, !nonnull !103, !align !5989
  %15 = call noundef i64 @_ZNKSt3__112basic_stringIcNS_11char_traitsIcEENS_9allocatorIcEEE4sizeB8ne210000Ev(ptr noundef nonnull align 8 dereferenceable(24) %14) #3, !dbg !6530
  %16 = call noundef nonnull align 8 dereferenceable(24) ptr @_ZNSt3__112basic_stringIcNS_11char_traitsIcEENS_9allocatorIcEEE7replaceEmmPKcm(ptr noundef nonnull align 8 dereferenceable(24) %9, i64 noundef %10, i64 noundef %11, ptr noundef %13, i64 noundef %15), !dbg !6531
  ret ptr %16, !dbg !6532
}

declare noundef nonnull align 8 dereferenceable(24) ptr @_ZNSt3__112basic_stringIcNS_11char_traitsIcEENS_9allocatorIcEEEaSERKS5_(ptr noundef nonnull align 8 dereferenceable(24), ptr noundef nonnull align 8 dereferenceable(24)) #7

; Function Attrs: nounwind
declare noundef i64 @_ZNKSt3__112basic_stringIcNS_11char_traitsIcEENS_9allocatorIcEEE4findEcm(ptr noundef nonnull align 8 dereferenceable(24), i8 noundef signext, i64 noundef) #2

declare void @_ZNSt3__1plIcNS_11char_traitsIcEENS_9allocatorIcEEEENS_12basic_stringIT_T0_T1_EEPKS6_RKS9_(ptr dead_on_unwind writable sret(%"class.std::__1::basic_string") align 8, ptr noundef, ptr noundef nonnull align 8 dereferenceable(24)) #7

; Function Attrs: mustprogress noinline nounwind optnone uwtable
define linkonce_odr hidden void @_ZNSt3__112basic_stringIcNS_11char_traitsIcEENS_9allocatorIcEEEC2B8ne210000EOS5_(ptr noundef nonnull align 8 dereferenceable(24) %0, ptr noundef nonnull align 8 dereferenceable(24) %1) unnamed_addr #4 comdat align 2 personality ptr @__gxx_personality_v0 !dbg !6533 {
  %3 = alloca ptr, align 8
  %4 = alloca ptr, align 8
  %5 = alloca %class.anon.21, align 1
  %6 = alloca %"union.std::__1::basic_string<char>::__rep", align 8
  store ptr %0, ptr %3, align 8
    #dbg_declare(ptr %3, !6534, !DIExpression(), !6535)
  store ptr %1, ptr %4, align 8
    #dbg_declare(ptr %4, !6536, !DIExpression(), !6537)
  %7 = load ptr, ptr %3, align 8
  %8 = getelementptr inbounds nuw %"class.std::__1::basic_string", ptr %7, i32 0, i32 0, !dbg !6538
  %9 = load ptr, ptr %4, align 8, !dbg !6539, !nonnull !103, !align !5989
  %10 = invoke noundef nonnull align 8 dereferenceable(24) ptr @_ZZNSt3__112basic_stringIcNS_11char_traitsIcEENS_9allocatorIcEEEC1B8ne210000EOS5_ENKUlRS5_E_clES7_(ptr noundef nonnull align 1 dereferenceable(1) %5, ptr noundef nonnull align 8 dereferenceable(24) %9)
          to label %11 unwind label %20, !dbg !6540

11:                                               ; preds = %2
  call void @llvm.memcpy.p0.p0.i64(ptr align 8 %8, ptr align 8 %10, i64 24, i1 false), !dbg !6538
  %12 = load ptr, ptr %4, align 8, !dbg !6541, !nonnull !103, !align !5989
  call void @llvm.memset.p0.i64(ptr align 8 %6, i8 0, i64 24, i1 false), !dbg !6542
  %13 = load ptr, ptr %4, align 8, !dbg !6544, !nonnull !103, !align !5989
  %14 = getelementptr inbounds nuw %"class.std::__1::basic_string", ptr %13, i32 0, i32 0, !dbg !6545
  call void @llvm.memcpy.p0.p0.i64(ptr align 8 %14, ptr align 8 %6, i64 24, i1 false), !dbg !6546
  %15 = load ptr, ptr %4, align 8, !dbg !6547, !nonnull !103, !align !5989
  call void @_ZNKSt3__112basic_stringIcNS_11char_traitsIcEENS_9allocatorIcEEE14__annotate_newB8ne210000Em(ptr noundef nonnull align 8 dereferenceable(24) %15, i64 noundef 0) #3, !dbg !6548
  %16 = call noundef zeroext i1 @_ZNKSt3__112basic_stringIcNS_11char_traitsIcEENS_9allocatorIcEEE9__is_longB8ne210000Ev(ptr noundef nonnull align 8 dereferenceable(24) %7) #3, !dbg !6549
  br i1 %16, label %19, label %17, !dbg !6551

17:                                               ; preds = %11
  %18 = call noundef i64 @_ZNKSt3__112basic_stringIcNS_11char_traitsIcEENS_9allocatorIcEEE4sizeB8ne210000Ev(ptr noundef nonnull align 8 dereferenceable(24) %7) #3, !dbg !6552
  call void @_ZNKSt3__112basic_stringIcNS_11char_traitsIcEENS_9allocatorIcEEE14__annotate_newB8ne210000Em(ptr noundef nonnull align 8 dereferenceable(24) %7, i64 noundef %18) #3, !dbg !6553
  br label %19, !dbg !6553

19:                                               ; preds = %17, %11
  ret void, !dbg !6554

20:                                               ; preds = %2
  %21 = landingpad { ptr, i32 }
          catch ptr null, !dbg !6540
  %22 = extractvalue { ptr, i32 } %21, 0, !dbg !6540
  call void @__clang_call_terminate(ptr %22) #18, !dbg !6540
  unreachable, !dbg !6540
}

; Function Attrs: mustprogress noinline optnone uwtable
define dso_local noundef i32 @_Z22risky_division_checkediiRbRNSt3__112basic_stringIcNS0_11char_traitsIcEENS0_9allocatorIcEEEE(i32 noundef %0, i32 noundef %1, ptr noundef nonnull align 1 dereferenceable(1) %2, ptr noundef nonnull align 8 dereferenceable(24) %3) #1 personality ptr @__gxx_personality_v0 !dbg !6555 {
  %5 = alloca i32, align 4
  %6 = alloca i32, align 4
  %7 = alloca ptr, align 8
  %8 = alloca ptr, align 8
  %9 = alloca ptr, align 8
  %10 = alloca i32, align 4
  store i32 %0, ptr %5, align 4
    #dbg_declare(ptr %5, !6558, !DIExpression(), !6559)
  store i32 %1, ptr %6, align 4
    #dbg_declare(ptr %6, !6560, !DIExpression(), !6561)
  store ptr %2, ptr %7, align 8
    #dbg_declare(ptr %7, !6562, !DIExpression(), !6563)
  store ptr %3, ptr %8, align 8
    #dbg_declare(ptr %8, !6564, !DIExpression(), !6565)
  %11 = load ptr, ptr %7, align 8, !dbg !6566, !nonnull !103
  store i8 1, ptr %11, align 1, !dbg !6567
  %12 = load ptr, ptr %8, align 8, !dbg !6568, !nonnull !103, !align !5989
  %13 = call noundef nonnull align 8 dereferenceable(24) ptr @_ZNSt3__112basic_stringIcNS_11char_traitsIcEENS_9allocatorIcEEEaSB8ne210000EPKc(ptr noundef nonnull align 8 dereferenceable(24) %12, ptr noundef @.str.11), !dbg !6569
  %14 = load i32, ptr %6, align 4, !dbg !6570
  %15 = icmp eq i32 %14, 0, !dbg !6572
  br i1 %15, label %16, label %26, !dbg !6572

16:                                               ; preds = %4
  %17 = load ptr, ptr %8, align 8, !dbg !6573, !nonnull !103, !align !5989
  %18 = call noundef nonnull align 8 dereferenceable(24) ptr @_ZNSt3__112basic_stringIcNS_11char_traitsIcEENS_9allocatorIcEEEaSB8ne210000EPKc(ptr noundef nonnull align 8 dereferenceable(24) %17, ptr noundef @.str.20), !dbg !6575
  %19 = call ptr @__cxa_allocate_exception(i64 16) #3, !dbg !6576
  %20 = load ptr, ptr %8, align 8, !dbg !6577, !nonnull !103, !align !5989
  invoke void @_ZNSt14overflow_errorC2B8ne210000ERKNSt3__112basic_stringIcNS0_11char_traitsIcEENS0_9allocatorIcEEEE(ptr noundef nonnull align 8 dereferenceable(16) %19, ptr noundef nonnull align 8 dereferenceable(24) %20)
          to label %21 unwind label %22, !dbg !6578

21:                                               ; preds = %16
  call void @__cxa_throw(ptr %19, ptr @_ZTISt14overflow_error, ptr @_ZNSt14overflow_errorD1Ev) #17, !dbg !6576
  unreachable, !dbg !6576

22:                                               ; preds = %16
  %23 = landingpad { ptr, i32 }
          cleanup, !dbg !6579
  %24 = extractvalue { ptr, i32 } %23, 0, !dbg !6579
  store ptr %24, ptr %9, align 8, !dbg !6579
  %25 = extractvalue { ptr, i32 } %23, 1, !dbg !6579
  store i32 %25, ptr %10, align 4, !dbg !6579
  call void @__cxa_free_exception(ptr %19) #3, !dbg !6576
  br label %46, !dbg !6576

26:                                               ; preds = %4
  %27 = load i32, ptr %5, align 4, !dbg !6580
  %28 = icmp eq i32 %27, 13, !dbg !6582
  br i1 %28, label %29, label %42, !dbg !6583

29:                                               ; preds = %26
  %30 = load i32, ptr %6, align 4, !dbg !6584
  %31 = icmp eq i32 %30, 1, !dbg !6585
  br i1 %31, label %32, label %42, !dbg !6583

32:                                               ; preds = %29
  %33 = load ptr, ptr %8, align 8, !dbg !6586, !nonnull !103, !align !5989
  %34 = call noundef nonnull align 8 dereferenceable(24) ptr @_ZNSt3__112basic_stringIcNS_11char_traitsIcEENS_9allocatorIcEEEaSB8ne210000EPKc(ptr noundef nonnull align 8 dereferenceable(24) %33, ptr noundef @.str.21), !dbg !6588
  %35 = call ptr @__cxa_allocate_exception(i64 16) #3, !dbg !6589
  %36 = load ptr, ptr %8, align 8, !dbg !6590, !nonnull !103, !align !5989
  invoke void @_ZN22AnotherCustomExceptionC2ERKNSt3__112basic_stringIcNS0_11char_traitsIcEENS0_9allocatorIcEEEE(ptr noundef nonnull align 8 dereferenceable(16) %35, ptr noundef nonnull align 8 dereferenceable(24) %36)
          to label %37 unwind label %38, !dbg !6591

37:                                               ; preds = %32
  call void @__cxa_throw(ptr %35, ptr @_ZTI22AnotherCustomException, ptr @_ZN22AnotherCustomExceptionD2Ev) #17, !dbg !6589
  unreachable, !dbg !6589

38:                                               ; preds = %32
  %39 = landingpad { ptr, i32 }
          cleanup, !dbg !6592
  %40 = extractvalue { ptr, i32 } %39, 0, !dbg !6592
  store ptr %40, ptr %9, align 8, !dbg !6592
  %41 = extractvalue { ptr, i32 } %39, 1, !dbg !6592
  store i32 %41, ptr %10, align 4, !dbg !6592
  call void @__cxa_free_exception(ptr %35) #3, !dbg !6589
  br label %46, !dbg !6589

42:                                               ; preds = %29, %26
  %43 = load i32, ptr %5, align 4, !dbg !6593
  %44 = load i32, ptr %6, align 4, !dbg !6594
  %45 = sdiv i32 %43, %44, !dbg !6595
  ret i32 %45, !dbg !6596

46:                                               ; preds = %38, %22
  %47 = load ptr, ptr %9, align 8, !dbg !6576
  %48 = load i32, ptr %10, align 4, !dbg !6576
  %49 = insertvalue { ptr, i32 } poison, ptr %47, 0, !dbg !6576
  %50 = insertvalue { ptr, i32 } %49, i32 %48, 1, !dbg !6576
  resume { ptr, i32 } %50, !dbg !6576
}

; Function Attrs: mustprogress noinline optnone uwtable
define linkonce_odr hidden void @_ZNSt14overflow_errorC2B8ne210000ERKNSt3__112basic_stringIcNS0_11char_traitsIcEENS0_9allocatorIcEEEE(ptr noundef nonnull align 8 dereferenceable(16) %0, ptr noundef nonnull align 8 dereferenceable(24) %1) unnamed_addr #1 comdat align 2 !dbg !6597 {
  %3 = alloca ptr, align 8
  %4 = alloca ptr, align 8
  store ptr %0, ptr %3, align 8
    #dbg_declare(ptr %3, !6602, !DIExpression(), !6604)
  store ptr %1, ptr %4, align 8
    #dbg_declare(ptr %4, !6605, !DIExpression(), !6606)
  %5 = load ptr, ptr %3, align 8
  %6 = load ptr, ptr %4, align 8, !dbg !6607, !nonnull !103, !align !5989
  call void @_ZNSt13runtime_errorC2ERKNSt3__112basic_stringIcNS0_11char_traitsIcEENS0_9allocatorIcEEEE(ptr noundef nonnull align 8 dereferenceable(16) %5, ptr noundef nonnull align 8 dereferenceable(24) %6), !dbg !6608
  store ptr getelementptr inbounds inrange(-16, 24) ({ [5 x ptr] }, ptr @_ZTVSt14overflow_error, i32 0, i32 0, i32 2), ptr %5, align 8, !dbg !6609
  ret void, !dbg !6610
}

; Function Attrs: nounwind
declare void @_ZNSt14overflow_errorD1Ev(ptr noundef nonnull align 8 dereferenceable(16)) unnamed_addr #2

; Function Attrs: mustprogress noinline optnone uwtable
define linkonce_odr dso_local void @_ZN22AnotherCustomExceptionC2ERKNSt3__112basic_stringIcNS0_11char_traitsIcEENS0_9allocatorIcEEEE(ptr noundef nonnull align 8 dereferenceable(16) %0, ptr noundef nonnull align 8 dereferenceable(24) %1) unnamed_addr #1 comdat align 2 !dbg !6611 {
  %3 = alloca ptr, align 8
  %4 = alloca ptr, align 8
  store ptr %0, ptr %3, align 8
    #dbg_declare(ptr %3, !6612, !DIExpression(), !6614)
  store ptr %1, ptr %4, align 8
    #dbg_declare(ptr %4, !6615, !DIExpression(), !6616)
  %5 = load ptr, ptr %3, align 8
  %6 = load ptr, ptr %4, align 8, !dbg !6617, !nonnull !103, !align !5989
  call void @_ZNSt11logic_errorC2ERKNSt3__112basic_stringIcNS0_11char_traitsIcEENS0_9allocatorIcEEEE(ptr noundef nonnull align 8 dereferenceable(16) %5, ptr noundef nonnull align 8 dereferenceable(24) %6), !dbg !6618
  store ptr getelementptr inbounds inrange(-16, 24) ({ [5 x ptr] }, ptr @_ZTV22AnotherCustomException, i32 0, i32 0, i32 2), ptr %5, align 8, !dbg !6619
  ret void, !dbg !6620
}

; Function Attrs: mustprogress noinline nounwind optnone uwtable
define linkonce_odr dso_local void @_ZN22AnotherCustomExceptionD2Ev(ptr noundef nonnull align 8 dereferenceable(16) %0) unnamed_addr #4 comdat align 2 !dbg !6621 {
  %2 = alloca ptr, align 8
  store ptr %0, ptr %2, align 8
    #dbg_declare(ptr %2, !6625, !DIExpression(), !6626)
  %3 = load ptr, ptr %2, align 8
  call void @_ZNSt11logic_errorD2Ev(ptr noundef nonnull align 8 dereferenceable(16) %3) #3, !dbg !6627
  ret void, !dbg !6629
}

; Function Attrs: mustprogress noinline norecurse optnone uwtable
define dso_local noundef i32 @main() #8 personality ptr @__gxx_personality_v0 !dbg !1398 {
  %1 = alloca i32, align 4
  %2 = alloca i32, align 4
  %3 = alloca i32, align 4
  %4 = alloca %class.anon, align 8
  %5 = alloca %"class.std::__1::basic_string", align 8
  %6 = alloca %"class.std::__1::function", align 16
  %7 = alloca %class.anon.1, align 8
  %8 = alloca ptr, align 8
  %9 = alloca i32, align 4
  %10 = alloca %"class.std::__1::basic_string", align 8
  %11 = alloca %"class.std::__1::function", align 16
  %12 = alloca %class.anon.2, align 8
  %13 = alloca %"class.std::__1::basic_string", align 8
  %14 = alloca %"class.std::__1::function", align 16
  %15 = alloca %class.anon.3, align 8
  %16 = alloca %"class.std::__1::basic_string", align 8
  %17 = alloca %"class.std::__1::function", align 16
  %18 = alloca %class.anon.4, align 8
  %19 = alloca %"class.std::__1::basic_string", align 8
  %20 = alloca %"class.std::__1::function", align 16
  %21 = alloca %class.anon.5, align 8
  %22 = alloca %"class.std::__1::basic_string", align 8
  %23 = alloca %"class.std::__1::function", align 16
  %24 = alloca %class.anon.6, align 8
  %25 = alloca %"class.std::__1::basic_string", align 8
  %26 = alloca %"class.std::__1::function", align 16
  %27 = alloca %class.anon.7, align 8
  %28 = alloca %"class.std::__1::basic_string", align 8
  %29 = alloca %"class.std::__1::function", align 16
  %30 = alloca %class.anon.8, align 8
  %31 = alloca %"class.std::__1::basic_string", align 8
  %32 = alloca %"class.std::__1::function", align 16
  %33 = alloca %class.anon.9, align 8
  %34 = alloca %"class.std::__1::basic_string", align 8
  %35 = alloca %"class.std::__1::function", align 16
  %36 = alloca %class.anon.10, align 8
  store i32 0, ptr %1, align 4
    #dbg_declare(ptr %2, !6630, !DIExpression(), !6631)
  store i32 0, ptr %2, align 4, !dbg !6631
    #dbg_declare(ptr %3, !6632, !DIExpression(), !6633)
  store i32 0, ptr %3, align 4, !dbg !6633
    #dbg_declare(ptr %4, !6634, !DIExpression(), !6638)
  %37 = getelementptr inbounds nuw %class.anon, ptr %4, i32 0, i32 0, !dbg !6639
  store ptr %2, ptr %37, align 8, !dbg !6639
  call void @_ZNSt3__112basic_stringIcNS_11char_traitsIcEENS_9allocatorIcEEEC2B8ne210000ILi0EEEPKc(ptr noundef nonnull align 8 dereferenceable(24) %5, ptr noundef @.str.22), !dbg !6640
  %38 = getelementptr inbounds nuw %class.anon.1, ptr %7, i32 0, i32 0, !dbg !6641
  store ptr %3, ptr %38, align 8, !dbg !6641
  %39 = getelementptr inbounds nuw %class.anon.1, ptr %7, i32 0, i32 0, !dbg !6641
  %40 = load ptr, ptr %39, align 8, !dbg !6641
  invoke void @"_ZNSt3__18functionIFvvEEC2IZ4mainE3$_0vEET_"(ptr noundef nonnull align 16 dereferenceable(48) %6, ptr %40)
          to label %41 unwind label %106, !dbg !6641

41:                                               ; preds = %0
  invoke void @"_ZZ4mainENK4$_10clERKNSt3__112basic_stringIcNS0_11char_traitsIcEENS0_9allocatorIcEEEENS0_8functionIFvvEEE"(ptr noundef nonnull align 8 dereferenceable(8) %4, ptr noundef nonnull align 8 dereferenceable(24) %5, ptr noundef %6)
          to label %42 unwind label %110, !dbg !6642

42:                                               ; preds = %41
  call void @_ZNSt3__18functionIFvvEED2Ev(ptr noundef nonnull align 16 dereferenceable(48) %6) #3, !dbg !6642
  call void @_ZNSt3__112basic_stringIcNS_11char_traitsIcEENS_9allocatorIcEEED1Ev(ptr noundef nonnull align 8 dereferenceable(24) %5) #3, !dbg !6642
  call void @_ZNSt3__112basic_stringIcNS_11char_traitsIcEENS_9allocatorIcEEEC2B8ne210000ILi0EEEPKc(ptr noundef nonnull align 8 dereferenceable(24) %10, ptr noundef @.str.23), !dbg !6643
  %43 = getelementptr inbounds nuw %class.anon.2, ptr %12, i32 0, i32 0, !dbg !6644
  store ptr %3, ptr %43, align 8, !dbg !6644
  %44 = getelementptr inbounds nuw %class.anon.2, ptr %12, i32 0, i32 0, !dbg !6644
  %45 = load ptr, ptr %44, align 8, !dbg !6644
  invoke void @"_ZNSt3__18functionIFvvEEC2IZ4mainE3$_1vEET_"(ptr noundef nonnull align 16 dereferenceable(48) %11, ptr %45)
          to label %46 unwind label %115, !dbg !6644

46:                                               ; preds = %42
  invoke void @"_ZZ4mainENK4$_10clERKNSt3__112basic_stringIcNS0_11char_traitsIcEENS0_9allocatorIcEEEENS0_8functionIFvvEEE"(ptr noundef nonnull align 8 dereferenceable(8) %4, ptr noundef nonnull align 8 dereferenceable(24) %10, ptr noundef %11)
          to label %47 unwind label %119, !dbg !6645

47:                                               ; preds = %46
  call void @_ZNSt3__18functionIFvvEED2Ev(ptr noundef nonnull align 16 dereferenceable(48) %11) #3, !dbg !6645
  call void @_ZNSt3__112basic_stringIcNS_11char_traitsIcEENS_9allocatorIcEEED1Ev(ptr noundef nonnull align 8 dereferenceable(24) %10) #3, !dbg !6645
  call void @_ZNSt3__112basic_stringIcNS_11char_traitsIcEENS_9allocatorIcEEEC2B8ne210000ILi0EEEPKc(ptr noundef nonnull align 8 dereferenceable(24) %13, ptr noundef @.str.24), !dbg !6646
  %48 = getelementptr inbounds nuw %class.anon.3, ptr %15, i32 0, i32 0, !dbg !6647
  store ptr %3, ptr %48, align 8, !dbg !6647
  %49 = getelementptr inbounds nuw %class.anon.3, ptr %15, i32 0, i32 0, !dbg !6647
  %50 = load ptr, ptr %49, align 8, !dbg !6647
  invoke void @"_ZNSt3__18functionIFvvEEC2IZ4mainE3$_2vEET_"(ptr noundef nonnull align 16 dereferenceable(48) %14, ptr %50)
          to label %51 unwind label %124, !dbg !6647

51:                                               ; preds = %47
  invoke void @"_ZZ4mainENK4$_10clERKNSt3__112basic_stringIcNS0_11char_traitsIcEENS0_9allocatorIcEEEENS0_8functionIFvvEEE"(ptr noundef nonnull align 8 dereferenceable(8) %4, ptr noundef nonnull align 8 dereferenceable(24) %13, ptr noundef %14)
          to label %52 unwind label %128, !dbg !6648

52:                                               ; preds = %51
  call void @_ZNSt3__18functionIFvvEED2Ev(ptr noundef nonnull align 16 dereferenceable(48) %14) #3, !dbg !6648
  call void @_ZNSt3__112basic_stringIcNS_11char_traitsIcEENS_9allocatorIcEEED1Ev(ptr noundef nonnull align 8 dereferenceable(24) %13) #3, !dbg !6648
  call void @_ZNSt3__112basic_stringIcNS_11char_traitsIcEENS_9allocatorIcEEEC2B8ne210000ILi0EEEPKc(ptr noundef nonnull align 8 dereferenceable(24) %16, ptr noundef @.str.25), !dbg !6649
  %53 = getelementptr inbounds nuw %class.anon.4, ptr %18, i32 0, i32 0, !dbg !6650
  store ptr %3, ptr %53, align 8, !dbg !6650
  %54 = getelementptr inbounds nuw %class.anon.4, ptr %18, i32 0, i32 0, !dbg !6650
  %55 = load ptr, ptr %54, align 8, !dbg !6650
  invoke void @"_ZNSt3__18functionIFvvEEC2IZ4mainE3$_3vEET_"(ptr noundef nonnull align 16 dereferenceable(48) %17, ptr %55)
          to label %56 unwind label %133, !dbg !6650

56:                                               ; preds = %52
  invoke void @"_ZZ4mainENK4$_10clERKNSt3__112basic_stringIcNS0_11char_traitsIcEENS0_9allocatorIcEEEENS0_8functionIFvvEEE"(ptr noundef nonnull align 8 dereferenceable(8) %4, ptr noundef nonnull align 8 dereferenceable(24) %16, ptr noundef %17)
          to label %57 unwind label %137, !dbg !6651

57:                                               ; preds = %56
  call void @_ZNSt3__18functionIFvvEED2Ev(ptr noundef nonnull align 16 dereferenceable(48) %17) #3, !dbg !6651
  call void @_ZNSt3__112basic_stringIcNS_11char_traitsIcEENS_9allocatorIcEEED1Ev(ptr noundef nonnull align 8 dereferenceable(24) %16) #3, !dbg !6651
  call void @_ZNSt3__112basic_stringIcNS_11char_traitsIcEENS_9allocatorIcEEEC2B8ne210000ILi0EEEPKc(ptr noundef nonnull align 8 dereferenceable(24) %19, ptr noundef @.str.26), !dbg !6652
  %58 = getelementptr inbounds nuw %class.anon.5, ptr %21, i32 0, i32 0, !dbg !6653
  store ptr %3, ptr %58, align 8, !dbg !6653
  %59 = getelementptr inbounds nuw %class.anon.5, ptr %21, i32 0, i32 0, !dbg !6653
  %60 = load ptr, ptr %59, align 8, !dbg !6653
  invoke void @"_ZNSt3__18functionIFvvEEC2IZ4mainE3$_4vEET_"(ptr noundef nonnull align 16 dereferenceable(48) %20, ptr %60)
          to label %61 unwind label %142, !dbg !6653

61:                                               ; preds = %57
  invoke void @"_ZZ4mainENK4$_10clERKNSt3__112basic_stringIcNS0_11char_traitsIcEENS0_9allocatorIcEEEENS0_8functionIFvvEEE"(ptr noundef nonnull align 8 dereferenceable(8) %4, ptr noundef nonnull align 8 dereferenceable(24) %19, ptr noundef %20)
          to label %62 unwind label %146, !dbg !6654

62:                                               ; preds = %61
  call void @_ZNSt3__18functionIFvvEED2Ev(ptr noundef nonnull align 16 dereferenceable(48) %20) #3, !dbg !6654
  call void @_ZNSt3__112basic_stringIcNS_11char_traitsIcEENS_9allocatorIcEEED1Ev(ptr noundef nonnull align 8 dereferenceable(24) %19) #3, !dbg !6654
  call void @_ZNSt3__112basic_stringIcNS_11char_traitsIcEENS_9allocatorIcEEEC2B8ne210000ILi0EEEPKc(ptr noundef nonnull align 8 dereferenceable(24) %22, ptr noundef @.str.27), !dbg !6655
  %63 = getelementptr inbounds nuw %class.anon.6, ptr %24, i32 0, i32 0, !dbg !6656
  store ptr %3, ptr %63, align 8, !dbg !6656
  %64 = getelementptr inbounds nuw %class.anon.6, ptr %24, i32 0, i32 0, !dbg !6656
  %65 = load ptr, ptr %64, align 8, !dbg !6656
  invoke void @"_ZNSt3__18functionIFvvEEC2IZ4mainE3$_5vEET_"(ptr noundef nonnull align 16 dereferenceable(48) %23, ptr %65)
          to label %66 unwind label %151, !dbg !6656

66:                                               ; preds = %62
  invoke void @"_ZZ4mainENK4$_10clERKNSt3__112basic_stringIcNS0_11char_traitsIcEENS0_9allocatorIcEEEENS0_8functionIFvvEEE"(ptr noundef nonnull align 8 dereferenceable(8) %4, ptr noundef nonnull align 8 dereferenceable(24) %22, ptr noundef %23)
          to label %67 unwind label %155, !dbg !6657

67:                                               ; preds = %66
  call void @_ZNSt3__18functionIFvvEED2Ev(ptr noundef nonnull align 16 dereferenceable(48) %23) #3, !dbg !6657
  call void @_ZNSt3__112basic_stringIcNS_11char_traitsIcEENS_9allocatorIcEEED1Ev(ptr noundef nonnull align 8 dereferenceable(24) %22) #3, !dbg !6657
  call void @_ZNSt3__112basic_stringIcNS_11char_traitsIcEENS_9allocatorIcEEEC2B8ne210000ILi0EEEPKc(ptr noundef nonnull align 8 dereferenceable(24) %25, ptr noundef @.str.28), !dbg !6658
  %68 = getelementptr inbounds nuw %class.anon.7, ptr %27, i32 0, i32 0, !dbg !6659
  store ptr %3, ptr %68, align 8, !dbg !6659
  %69 = getelementptr inbounds nuw %class.anon.7, ptr %27, i32 0, i32 0, !dbg !6659
  %70 = load ptr, ptr %69, align 8, !dbg !6659
  invoke void @"_ZNSt3__18functionIFvvEEC2IZ4mainE3$_6vEET_"(ptr noundef nonnull align 16 dereferenceable(48) %26, ptr %70)
          to label %71 unwind label %160, !dbg !6659

71:                                               ; preds = %67
  invoke void @"_ZZ4mainENK4$_10clERKNSt3__112basic_stringIcNS0_11char_traitsIcEENS0_9allocatorIcEEEENS0_8functionIFvvEEE"(ptr noundef nonnull align 8 dereferenceable(8) %4, ptr noundef nonnull align 8 dereferenceable(24) %25, ptr noundef %26)
          to label %72 unwind label %164, !dbg !6660

72:                                               ; preds = %71
  call void @_ZNSt3__18functionIFvvEED2Ev(ptr noundef nonnull align 16 dereferenceable(48) %26) #3, !dbg !6660
  call void @_ZNSt3__112basic_stringIcNS_11char_traitsIcEENS_9allocatorIcEEED1Ev(ptr noundef nonnull align 8 dereferenceable(24) %25) #3, !dbg !6660
  call void @_ZNSt3__112basic_stringIcNS_11char_traitsIcEENS_9allocatorIcEEEC2B8ne210000ILi0EEEPKc(ptr noundef nonnull align 8 dereferenceable(24) %28, ptr noundef @.str.29), !dbg !6661
  %73 = getelementptr inbounds nuw %class.anon.8, ptr %30, i32 0, i32 0, !dbg !6662
  store ptr %3, ptr %73, align 8, !dbg !6662
  %74 = getelementptr inbounds nuw %class.anon.8, ptr %30, i32 0, i32 0, !dbg !6662
  %75 = load ptr, ptr %74, align 8, !dbg !6662
  invoke void @"_ZNSt3__18functionIFvvEEC2IZ4mainE3$_7vEET_"(ptr noundef nonnull align 16 dereferenceable(48) %29, ptr %75)
          to label %76 unwind label %169, !dbg !6662

76:                                               ; preds = %72
  invoke void @"_ZZ4mainENK4$_10clERKNSt3__112basic_stringIcNS0_11char_traitsIcEENS0_9allocatorIcEEEENS0_8functionIFvvEEE"(ptr noundef nonnull align 8 dereferenceable(8) %4, ptr noundef nonnull align 8 dereferenceable(24) %28, ptr noundef %29)
          to label %77 unwind label %173, !dbg !6663

77:                                               ; preds = %76
  call void @_ZNSt3__18functionIFvvEED2Ev(ptr noundef nonnull align 16 dereferenceable(48) %29) #3, !dbg !6663
  call void @_ZNSt3__112basic_stringIcNS_11char_traitsIcEENS_9allocatorIcEEED1Ev(ptr noundef nonnull align 8 dereferenceable(24) %28) #3, !dbg !6663
  call void @_ZNSt3__112basic_stringIcNS_11char_traitsIcEENS_9allocatorIcEEEC2B8ne210000ILi0EEEPKc(ptr noundef nonnull align 8 dereferenceable(24) %31, ptr noundef @.str.30), !dbg !6664
  %78 = getelementptr inbounds nuw %class.anon.9, ptr %33, i32 0, i32 0, !dbg !6665
  store ptr %3, ptr %78, align 8, !dbg !6665
  %79 = getelementptr inbounds nuw %class.anon.9, ptr %33, i32 0, i32 0, !dbg !6665
  %80 = load ptr, ptr %79, align 8, !dbg !6665
  invoke void @"_ZNSt3__18functionIFvvEEC2IZ4mainE3$_8vEET_"(ptr noundef nonnull align 16 dereferenceable(48) %32, ptr %80)
          to label %81 unwind label %178, !dbg !6665

81:                                               ; preds = %77
  invoke void @"_ZZ4mainENK4$_10clERKNSt3__112basic_stringIcNS0_11char_traitsIcEENS0_9allocatorIcEEEENS0_8functionIFvvEEE"(ptr noundef nonnull align 8 dereferenceable(8) %4, ptr noundef nonnull align 8 dereferenceable(24) %31, ptr noundef %32)
          to label %82 unwind label %182, !dbg !6666

82:                                               ; preds = %81
  call void @_ZNSt3__18functionIFvvEED2Ev(ptr noundef nonnull align 16 dereferenceable(48) %32) #3, !dbg !6666
  call void @_ZNSt3__112basic_stringIcNS_11char_traitsIcEENS_9allocatorIcEEED1Ev(ptr noundef nonnull align 8 dereferenceable(24) %31) #3, !dbg !6666
  call void @_ZNSt3__112basic_stringIcNS_11char_traitsIcEENS_9allocatorIcEEEC2B8ne210000ILi0EEEPKc(ptr noundef nonnull align 8 dereferenceable(24) %34, ptr noundef @.str.31), !dbg !6667
  %83 = getelementptr inbounds nuw %class.anon.10, ptr %36, i32 0, i32 0, !dbg !6668
  store ptr %3, ptr %83, align 8, !dbg !6668
  %84 = getelementptr inbounds nuw %class.anon.10, ptr %36, i32 0, i32 0, !dbg !6668
  %85 = load ptr, ptr %84, align 8, !dbg !6668
  invoke void @"_ZNSt3__18functionIFvvEEC2IZ4mainE3$_9vEET_"(ptr noundef nonnull align 16 dereferenceable(48) %35, ptr %85)
          to label %86 unwind label %187, !dbg !6668

86:                                               ; preds = %82
  invoke void @"_ZZ4mainENK4$_10clERKNSt3__112basic_stringIcNS0_11char_traitsIcEENS0_9allocatorIcEEEENS0_8functionIFvvEEE"(ptr noundef nonnull align 8 dereferenceable(8) %4, ptr noundef nonnull align 8 dereferenceable(24) %34, ptr noundef %35)
          to label %87 unwind label %191, !dbg !6669

87:                                               ; preds = %86
  call void @_ZNSt3__18functionIFvvEED2Ev(ptr noundef nonnull align 16 dereferenceable(48) %35) #3, !dbg !6669
  call void @_ZNSt3__112basic_stringIcNS_11char_traitsIcEENS_9allocatorIcEEED1Ev(ptr noundef nonnull align 8 dereferenceable(24) %34) #3, !dbg !6669
  %88 = call noundef nonnull align 8 dereferenceable(8) ptr @_ZNSt3__1lsB8ne210000INS_11char_traitsIcEEEERNS_13basic_ostreamIcT_EES6_PKc(ptr noundef nonnull align 8 dereferenceable(8) @_ZNSt3__14coutE, ptr noundef @.str.32), !dbg !6670
  %89 = call noundef nonnull align 8 dereferenceable(8) ptr @_ZNSt3__113basic_ostreamIcNS_11char_traitsIcEEElsB8ne210000EPFRS3_S4_E(ptr noundef nonnull align 8 dereferenceable(8) %88, ptr noundef @_ZNSt3__14endlB8ne210000IcNS_11char_traitsIcEEEERNS_13basic_ostreamIT_T0_EES7_), !dbg !6671
  %90 = call noundef nonnull align 8 dereferenceable(8) ptr @_ZNSt3__1lsB8ne210000INS_11char_traitsIcEEEERNS_13basic_ostreamIcT_EES6_PKc(ptr noundef nonnull align 8 dereferenceable(8) @_ZNSt3__14coutE, ptr noundef @.str.33), !dbg !6672
  %91 = load i32, ptr %2, align 4, !dbg !6673
  %92 = call noundef nonnull align 8 dereferenceable(8) ptr @_ZNSt3__113basic_ostreamIcNS_11char_traitsIcEEElsEi(ptr noundef nonnull align 8 dereferenceable(8) %90, i32 noundef %91), !dbg !6674
  %93 = call noundef nonnull align 8 dereferenceable(8) ptr @_ZNSt3__113basic_ostreamIcNS_11char_traitsIcEEElsB8ne210000EPFRS3_S4_E(ptr noundef nonnull align 8 dereferenceable(8) %92, ptr noundef @_ZNSt3__14endlB8ne210000IcNS_11char_traitsIcEEEERNS_13basic_ostreamIT_T0_EES7_), !dbg !6675
  %94 = call noundef nonnull align 8 dereferenceable(8) ptr @_ZNSt3__1lsB8ne210000INS_11char_traitsIcEEEERNS_13basic_ostreamIcT_EES6_PKc(ptr noundef nonnull align 8 dereferenceable(8) @_ZNSt3__14coutE, ptr noundef @.str.34), !dbg !6676
  %95 = load i32, ptr %3, align 4, !dbg !6677
  %96 = call noundef nonnull align 8 dereferenceable(8) ptr @_ZNSt3__113basic_ostreamIcNS_11char_traitsIcEEElsEi(ptr noundef nonnull align 8 dereferenceable(8) %94, i32 noundef %95), !dbg !6678
  %97 = call noundef nonnull align 8 dereferenceable(8) ptr @_ZNSt3__113basic_ostreamIcNS_11char_traitsIcEEElsB8ne210000EPFRS3_S4_E(ptr noundef nonnull align 8 dereferenceable(8) %96, ptr noundef @_ZNSt3__14endlB8ne210000IcNS_11char_traitsIcEEEERNS_13basic_ostreamIT_T0_EES7_), !dbg !6679
  %98 = load i32, ptr %3, align 4, !dbg !6680
  %99 = load i32, ptr %2, align 4, !dbg !6682
  %100 = icmp eq i32 %98, %99, !dbg !6683
  br i1 %100, label %101, label %196, !dbg !6683

101:                                              ; preds = %87
  %102 = call noundef nonnull align 8 dereferenceable(8) ptr @_ZNSt3__1lsB8ne210000IcNS_11char_traitsIcEENS_9allocatorIcEEEERNS_13basic_ostreamIT_T0_EES9_RKNS_12basic_stringIS6_S7_T1_EE(ptr noundef nonnull align 8 dereferenceable(8) @_ZNSt3__14coutE, ptr noundef nonnull align 8 dereferenceable(24) @_ZL11GREEN_COLOR), !dbg !6684
  %103 = call noundef nonnull align 8 dereferenceable(8) ptr @_ZNSt3__1lsB8ne210000INS_11char_traitsIcEEEERNS_13basic_ostreamIcT_EES6_PKc(ptr noundef nonnull align 8 dereferenceable(8) %102, ptr noundef @.str.35), !dbg !6686
  %104 = call noundef nonnull align 8 dereferenceable(8) ptr @_ZNSt3__1lsB8ne210000IcNS_11char_traitsIcEENS_9allocatorIcEEEERNS_13basic_ostreamIT_T0_EES9_RKNS_12basic_stringIS6_S7_T1_EE(ptr noundef nonnull align 8 dereferenceable(8) %103, ptr noundef nonnull align 8 dereferenceable(24) @_ZL11RESET_COLOR), !dbg !6687
  %105 = call noundef nonnull align 8 dereferenceable(8) ptr @_ZNSt3__113basic_ostreamIcNS_11char_traitsIcEEElsB8ne210000EPFRS3_S4_E(ptr noundef nonnull align 8 dereferenceable(8) %104, ptr noundef @_ZNSt3__14endlB8ne210000IcNS_11char_traitsIcEEEERNS_13basic_ostreamIT_T0_EES7_), !dbg !6688
  br label %205, !dbg !6689

106:                                              ; preds = %0
  %107 = landingpad { ptr, i32 }
          cleanup, !dbg !6690
  %108 = extractvalue { ptr, i32 } %107, 0, !dbg !6690
  store ptr %108, ptr %8, align 8, !dbg !6690
  %109 = extractvalue { ptr, i32 } %107, 1, !dbg !6690
  store i32 %109, ptr %9, align 4, !dbg !6690
  br label %114, !dbg !6690

110:                                              ; preds = %41
  %111 = landingpad { ptr, i32 }
          cleanup, !dbg !6690
  %112 = extractvalue { ptr, i32 } %111, 0, !dbg !6690
  store ptr %112, ptr %8, align 8, !dbg !6690
  %113 = extractvalue { ptr, i32 } %111, 1, !dbg !6690
  store i32 %113, ptr %9, align 4, !dbg !6690
  call void @_ZNSt3__18functionIFvvEED2Ev(ptr noundef nonnull align 16 dereferenceable(48) %6) #3, !dbg !6642
  br label %114, !dbg !6642

114:                                              ; preds = %110, %106
  call void @_ZNSt3__112basic_stringIcNS_11char_traitsIcEENS_9allocatorIcEEED1Ev(ptr noundef nonnull align 8 dereferenceable(24) %5) #3, !dbg !6642
  br label %211, !dbg !6642

115:                                              ; preds = %42
  %116 = landingpad { ptr, i32 }
          cleanup, !dbg !6690
  %117 = extractvalue { ptr, i32 } %116, 0, !dbg !6690
  store ptr %117, ptr %8, align 8, !dbg !6690
  %118 = extractvalue { ptr, i32 } %116, 1, !dbg !6690
  store i32 %118, ptr %9, align 4, !dbg !6690
  br label %123, !dbg !6690

119:                                              ; preds = %46
  %120 = landingpad { ptr, i32 }
          cleanup, !dbg !6690
  %121 = extractvalue { ptr, i32 } %120, 0, !dbg !6690
  store ptr %121, ptr %8, align 8, !dbg !6690
  %122 = extractvalue { ptr, i32 } %120, 1, !dbg !6690
  store i32 %122, ptr %9, align 4, !dbg !6690
  call void @_ZNSt3__18functionIFvvEED2Ev(ptr noundef nonnull align 16 dereferenceable(48) %11) #3, !dbg !6645
  br label %123, !dbg !6645

123:                                              ; preds = %119, %115
  call void @_ZNSt3__112basic_stringIcNS_11char_traitsIcEENS_9allocatorIcEEED1Ev(ptr noundef nonnull align 8 dereferenceable(24) %10) #3, !dbg !6645
  br label %211, !dbg !6645

124:                                              ; preds = %47
  %125 = landingpad { ptr, i32 }
          cleanup, !dbg !6690
  %126 = extractvalue { ptr, i32 } %125, 0, !dbg !6690
  store ptr %126, ptr %8, align 8, !dbg !6690
  %127 = extractvalue { ptr, i32 } %125, 1, !dbg !6690
  store i32 %127, ptr %9, align 4, !dbg !6690
  br label %132, !dbg !6690

128:                                              ; preds = %51
  %129 = landingpad { ptr, i32 }
          cleanup, !dbg !6690
  %130 = extractvalue { ptr, i32 } %129, 0, !dbg !6690
  store ptr %130, ptr %8, align 8, !dbg !6690
  %131 = extractvalue { ptr, i32 } %129, 1, !dbg !6690
  store i32 %131, ptr %9, align 4, !dbg !6690
  call void @_ZNSt3__18functionIFvvEED2Ev(ptr noundef nonnull align 16 dereferenceable(48) %14) #3, !dbg !6648
  br label %132, !dbg !6648

132:                                              ; preds = %128, %124
  call void @_ZNSt3__112basic_stringIcNS_11char_traitsIcEENS_9allocatorIcEEED1Ev(ptr noundef nonnull align 8 dereferenceable(24) %13) #3, !dbg !6648
  br label %211, !dbg !6648

133:                                              ; preds = %52
  %134 = landingpad { ptr, i32 }
          cleanup, !dbg !6690
  %135 = extractvalue { ptr, i32 } %134, 0, !dbg !6690
  store ptr %135, ptr %8, align 8, !dbg !6690
  %136 = extractvalue { ptr, i32 } %134, 1, !dbg !6690
  store i32 %136, ptr %9, align 4, !dbg !6690
  br label %141, !dbg !6690

137:                                              ; preds = %56
  %138 = landingpad { ptr, i32 }
          cleanup, !dbg !6690
  %139 = extractvalue { ptr, i32 } %138, 0, !dbg !6690
  store ptr %139, ptr %8, align 8, !dbg !6690
  %140 = extractvalue { ptr, i32 } %138, 1, !dbg !6690
  store i32 %140, ptr %9, align 4, !dbg !6690
  call void @_ZNSt3__18functionIFvvEED2Ev(ptr noundef nonnull align 16 dereferenceable(48) %17) #3, !dbg !6651
  br label %141, !dbg !6651

141:                                              ; preds = %137, %133
  call void @_ZNSt3__112basic_stringIcNS_11char_traitsIcEENS_9allocatorIcEEED1Ev(ptr noundef nonnull align 8 dereferenceable(24) %16) #3, !dbg !6651
  br label %211, !dbg !6651

142:                                              ; preds = %57
  %143 = landingpad { ptr, i32 }
          cleanup, !dbg !6690
  %144 = extractvalue { ptr, i32 } %143, 0, !dbg !6690
  store ptr %144, ptr %8, align 8, !dbg !6690
  %145 = extractvalue { ptr, i32 } %143, 1, !dbg !6690
  store i32 %145, ptr %9, align 4, !dbg !6690
  br label %150, !dbg !6690

146:                                              ; preds = %61
  %147 = landingpad { ptr, i32 }
          cleanup, !dbg !6690
  %148 = extractvalue { ptr, i32 } %147, 0, !dbg !6690
  store ptr %148, ptr %8, align 8, !dbg !6690
  %149 = extractvalue { ptr, i32 } %147, 1, !dbg !6690
  store i32 %149, ptr %9, align 4, !dbg !6690
  call void @_ZNSt3__18functionIFvvEED2Ev(ptr noundef nonnull align 16 dereferenceable(48) %20) #3, !dbg !6654
  br label %150, !dbg !6654

150:                                              ; preds = %146, %142
  call void @_ZNSt3__112basic_stringIcNS_11char_traitsIcEENS_9allocatorIcEEED1Ev(ptr noundef nonnull align 8 dereferenceable(24) %19) #3, !dbg !6654
  br label %211, !dbg !6654

151:                                              ; preds = %62
  %152 = landingpad { ptr, i32 }
          cleanup, !dbg !6690
  %153 = extractvalue { ptr, i32 } %152, 0, !dbg !6690
  store ptr %153, ptr %8, align 8, !dbg !6690
  %154 = extractvalue { ptr, i32 } %152, 1, !dbg !6690
  store i32 %154, ptr %9, align 4, !dbg !6690
  br label %159, !dbg !6690

155:                                              ; preds = %66
  %156 = landingpad { ptr, i32 }
          cleanup, !dbg !6690
  %157 = extractvalue { ptr, i32 } %156, 0, !dbg !6690
  store ptr %157, ptr %8, align 8, !dbg !6690
  %158 = extractvalue { ptr, i32 } %156, 1, !dbg !6690
  store i32 %158, ptr %9, align 4, !dbg !6690
  call void @_ZNSt3__18functionIFvvEED2Ev(ptr noundef nonnull align 16 dereferenceable(48) %23) #3, !dbg !6657
  br label %159, !dbg !6657

159:                                              ; preds = %155, %151
  call void @_ZNSt3__112basic_stringIcNS_11char_traitsIcEENS_9allocatorIcEEED1Ev(ptr noundef nonnull align 8 dereferenceable(24) %22) #3, !dbg !6657
  br label %211, !dbg !6657

160:                                              ; preds = %67
  %161 = landingpad { ptr, i32 }
          cleanup, !dbg !6690
  %162 = extractvalue { ptr, i32 } %161, 0, !dbg !6690
  store ptr %162, ptr %8, align 8, !dbg !6690
  %163 = extractvalue { ptr, i32 } %161, 1, !dbg !6690
  store i32 %163, ptr %9, align 4, !dbg !6690
  br label %168, !dbg !6690

164:                                              ; preds = %71
  %165 = landingpad { ptr, i32 }
          cleanup, !dbg !6690
  %166 = extractvalue { ptr, i32 } %165, 0, !dbg !6690
  store ptr %166, ptr %8, align 8, !dbg !6690
  %167 = extractvalue { ptr, i32 } %165, 1, !dbg !6690
  store i32 %167, ptr %9, align 4, !dbg !6690
  call void @_ZNSt3__18functionIFvvEED2Ev(ptr noundef nonnull align 16 dereferenceable(48) %26) #3, !dbg !6660
  br label %168, !dbg !6660

168:                                              ; preds = %164, %160
  call void @_ZNSt3__112basic_stringIcNS_11char_traitsIcEENS_9allocatorIcEEED1Ev(ptr noundef nonnull align 8 dereferenceable(24) %25) #3, !dbg !6660
  br label %211, !dbg !6660

169:                                              ; preds = %72
  %170 = landingpad { ptr, i32 }
          cleanup, !dbg !6690
  %171 = extractvalue { ptr, i32 } %170, 0, !dbg !6690
  store ptr %171, ptr %8, align 8, !dbg !6690
  %172 = extractvalue { ptr, i32 } %170, 1, !dbg !6690
  store i32 %172, ptr %9, align 4, !dbg !6690
  br label %177, !dbg !6690

173:                                              ; preds = %76
  %174 = landingpad { ptr, i32 }
          cleanup, !dbg !6690
  %175 = extractvalue { ptr, i32 } %174, 0, !dbg !6690
  store ptr %175, ptr %8, align 8, !dbg !6690
  %176 = extractvalue { ptr, i32 } %174, 1, !dbg !6690
  store i32 %176, ptr %9, align 4, !dbg !6690
  call void @_ZNSt3__18functionIFvvEED2Ev(ptr noundef nonnull align 16 dereferenceable(48) %29) #3, !dbg !6663
  br label %177, !dbg !6663

177:                                              ; preds = %173, %169
  call void @_ZNSt3__112basic_stringIcNS_11char_traitsIcEENS_9allocatorIcEEED1Ev(ptr noundef nonnull align 8 dereferenceable(24) %28) #3, !dbg !6663
  br label %211, !dbg !6663

178:                                              ; preds = %77
  %179 = landingpad { ptr, i32 }
          cleanup, !dbg !6690
  %180 = extractvalue { ptr, i32 } %179, 0, !dbg !6690
  store ptr %180, ptr %8, align 8, !dbg !6690
  %181 = extractvalue { ptr, i32 } %179, 1, !dbg !6690
  store i32 %181, ptr %9, align 4, !dbg !6690
  br label %186, !dbg !6690

182:                                              ; preds = %81
  %183 = landingpad { ptr, i32 }
          cleanup, !dbg !6690
  %184 = extractvalue { ptr, i32 } %183, 0, !dbg !6690
  store ptr %184, ptr %8, align 8, !dbg !6690
  %185 = extractvalue { ptr, i32 } %183, 1, !dbg !6690
  store i32 %185, ptr %9, align 4, !dbg !6690
  call void @_ZNSt3__18functionIFvvEED2Ev(ptr noundef nonnull align 16 dereferenceable(48) %32) #3, !dbg !6666
  br label %186, !dbg !6666

186:                                              ; preds = %182, %178
  call void @_ZNSt3__112basic_stringIcNS_11char_traitsIcEENS_9allocatorIcEEED1Ev(ptr noundef nonnull align 8 dereferenceable(24) %31) #3, !dbg !6666
  br label %211, !dbg !6666

187:                                              ; preds = %82
  %188 = landingpad { ptr, i32 }
          cleanup, !dbg !6690
  %189 = extractvalue { ptr, i32 } %188, 0, !dbg !6690
  store ptr %189, ptr %8, align 8, !dbg !6690
  %190 = extractvalue { ptr, i32 } %188, 1, !dbg !6690
  store i32 %190, ptr %9, align 4, !dbg !6690
  br label %195, !dbg !6690

191:                                              ; preds = %86
  %192 = landingpad { ptr, i32 }
          cleanup, !dbg !6690
  %193 = extractvalue { ptr, i32 } %192, 0, !dbg !6690
  store ptr %193, ptr %8, align 8, !dbg !6690
  %194 = extractvalue { ptr, i32 } %192, 1, !dbg !6690
  store i32 %194, ptr %9, align 4, !dbg !6690
  call void @_ZNSt3__18functionIFvvEED2Ev(ptr noundef nonnull align 16 dereferenceable(48) %35) #3, !dbg !6669
  br label %195, !dbg !6669

195:                                              ; preds = %191, %187
  call void @_ZNSt3__112basic_stringIcNS_11char_traitsIcEENS_9allocatorIcEEED1Ev(ptr noundef nonnull align 8 dereferenceable(24) %34) #3, !dbg !6669
  br label %211, !dbg !6669

196:                                              ; preds = %87
  %197 = call noundef nonnull align 8 dereferenceable(8) ptr @_ZNSt3__1lsB8ne210000IcNS_11char_traitsIcEENS_9allocatorIcEEEERNS_13basic_ostreamIT_T0_EES9_RKNS_12basic_stringIS6_S7_T1_EE(ptr noundef nonnull align 8 dereferenceable(8) @_ZNSt3__14coutE, ptr noundef nonnull align 8 dereferenceable(24) @_ZL9RED_COLOR), !dbg !6691
  %198 = load i32, ptr %2, align 4, !dbg !6693
  %199 = load i32, ptr %3, align 4, !dbg !6694
  %200 = sub nsw i32 %198, %199, !dbg !6695
  %201 = call noundef nonnull align 8 dereferenceable(8) ptr @_ZNSt3__113basic_ostreamIcNS_11char_traitsIcEEElsEi(ptr noundef nonnull align 8 dereferenceable(8) %197, i32 noundef %200), !dbg !6696
  %202 = call noundef nonnull align 8 dereferenceable(8) ptr @_ZNSt3__1lsB8ne210000INS_11char_traitsIcEEEERNS_13basic_ostreamIcT_EES6_PKc(ptr noundef nonnull align 8 dereferenceable(8) %201, ptr noundef @.str.36), !dbg !6697
  %203 = call noundef nonnull align 8 dereferenceable(8) ptr @_ZNSt3__1lsB8ne210000IcNS_11char_traitsIcEENS_9allocatorIcEEEERNS_13basic_ostreamIT_T0_EES9_RKNS_12basic_stringIS6_S7_T1_EE(ptr noundef nonnull align 8 dereferenceable(8) %202, ptr noundef nonnull align 8 dereferenceable(24) @_ZL11RESET_COLOR), !dbg !6698
  %204 = call noundef nonnull align 8 dereferenceable(8) ptr @_ZNSt3__113basic_ostreamIcNS_11char_traitsIcEEElsB8ne210000EPFRS3_S4_E(ptr noundef nonnull align 8 dereferenceable(8) %203, ptr noundef @_ZNSt3__14endlB8ne210000IcNS_11char_traitsIcEEEERNS_13basic_ostreamIT_T0_EES7_), !dbg !6699
  br label %205

205:                                              ; preds = %196, %101
  %206 = load i32, ptr %3, align 4, !dbg !6700
  %207 = load i32, ptr %2, align 4, !dbg !6701
  %208 = icmp eq i32 %206, %207, !dbg !6702
  %209 = zext i1 %208 to i64, !dbg !6703
  %210 = select i1 %208, i32 0, i32 1, !dbg !6703
  ret i32 %210, !dbg !6704

211:                                              ; preds = %195, %186, %177, %168, %159, %150, %141, %132, %123, %114
  %212 = load ptr, ptr %8, align 8, !dbg !6642
  %213 = load i32, ptr %9, align 4, !dbg !6642
  %214 = insertvalue { ptr, i32 } poison, ptr %212, 0, !dbg !6642
  %215 = insertvalue { ptr, i32 } %214, i32 %213, 1, !dbg !6642
  resume { ptr, i32 } %215, !dbg !6642
}

; Function Attrs: mustprogress noinline optnone uwtable
define internal void @"_ZZ4mainENK4$_10clERKNSt3__112basic_stringIcNS0_11char_traitsIcEENS0_9allocatorIcEEEENS0_8functionIFvvEEE"(ptr noundef nonnull align 8 dereferenceable(8) %0, ptr noundef nonnull align 8 dereferenceable(24) %1, ptr noundef %2) #1 align 2 !dbg !6705 {
  %4 = alloca ptr, align 8
  %5 = alloca ptr, align 8
  %6 = alloca ptr, align 8
  store ptr %0, ptr %4, align 8
    #dbg_declare(ptr %4, !6711, !DIExpression(), !6713)
  store ptr %1, ptr %5, align 8
    #dbg_declare(ptr %5, !6714, !DIExpression(), !6715)
  store ptr %2, ptr %6, align 8
    #dbg_declare(ptr %6, !6716, !DIExpression(DW_OP_deref), !6717)
  %7 = load ptr, ptr %4, align 8
  %8 = getelementptr inbounds nuw %class.anon, ptr %7, i32 0, i32 0, !dbg !6718
  %9 = load ptr, ptr %8, align 8, !dbg !6718, !nonnull !103, !align !6275
  %10 = load i32, ptr %9, align 4, !dbg !6719
  %11 = add nsw i32 %10, 1, !dbg !6719
  store i32 %11, ptr %9, align 4, !dbg !6719
  %12 = call noundef nonnull align 8 dereferenceable(8) ptr @_ZNSt3__1lsB8ne210000IcNS_11char_traitsIcEENS_9allocatorIcEEEERNS_13basic_ostreamIT_T0_EES9_RKNS_12basic_stringIS6_S7_T1_EE(ptr noundef nonnull align 8 dereferenceable(8) @_ZNSt3__14coutE, ptr noundef nonnull align 8 dereferenceable(24) @_ZL12YELLOW_COLOR), !dbg !6720
  %13 = call noundef nonnull align 8 dereferenceable(8) ptr @_ZNSt3__1lsB8ne210000INS_11char_traitsIcEEEERNS_13basic_ostreamIcT_EES6_PKc(ptr noundef nonnull align 8 dereferenceable(8) %12, ptr noundef @.str.37), !dbg !6721
  %14 = load ptr, ptr %5, align 8, !dbg !6722, !nonnull !103, !align !5989
  %15 = call noundef nonnull align 8 dereferenceable(8) ptr @_ZNSt3__1lsB8ne210000IcNS_11char_traitsIcEENS_9allocatorIcEEEERNS_13basic_ostreamIT_T0_EES9_RKNS_12basic_stringIS6_S7_T1_EE(ptr noundef nonnull align 8 dereferenceable(8) %13, ptr noundef nonnull align 8 dereferenceable(24) %14), !dbg !6723
  %16 = call noundef nonnull align 8 dereferenceable(8) ptr @_ZNSt3__1lsB8ne210000INS_11char_traitsIcEEEERNS_13basic_ostreamIcT_EES6_PKc(ptr noundef nonnull align 8 dereferenceable(8) %15, ptr noundef @.str.38), !dbg !6724
  %17 = call noundef nonnull align 8 dereferenceable(8) ptr @_ZNSt3__1lsB8ne210000IcNS_11char_traitsIcEENS_9allocatorIcEEEERNS_13basic_ostreamIT_T0_EES9_RKNS_12basic_stringIS6_S7_T1_EE(ptr noundef nonnull align 8 dereferenceable(8) %16, ptr noundef nonnull align 8 dereferenceable(24) @_ZL11RESET_COLOR), !dbg !6725
  %18 = call noundef nonnull align 8 dereferenceable(8) ptr @_ZNSt3__113basic_ostreamIcNS_11char_traitsIcEEElsB8ne210000EPFRS3_S4_E(ptr noundef nonnull align 8 dereferenceable(8) %17, ptr noundef @_ZNSt3__14endlB8ne210000IcNS_11char_traitsIcEEEERNS_13basic_ostreamIT_T0_EES7_), !dbg !6726
  call void @_ZNKSt3__18functionIFvvEEclEv(ptr noundef nonnull align 16 dereferenceable(48) %2), !dbg !6727
  %19 = call noundef nonnull align 8 dereferenceable(8) ptr @_ZNSt3__113basic_ostreamIcNS_11char_traitsIcEEElsB8ne210000EPFRS3_S4_E(ptr noundef nonnull align 8 dereferenceable(8) @_ZNSt3__14coutE, ptr noundef @_ZNSt3__14endlB8ne210000IcNS_11char_traitsIcEEEERNS_13basic_ostreamIT_T0_EES7_), !dbg !6728
  ret void, !dbg !6729
}

; Function Attrs: mustprogress noinline optnone uwtable
define internal void @"_ZNSt3__18functionIFvvEEC2IZ4mainE3$_0vEET_"(ptr noundef nonnull align 16 dereferenceable(48) %0, ptr %1) unnamed_addr #1 align 2 !dbg !6730 {
  %3 = alloca %class.anon.1, align 8
  %4 = alloca ptr, align 8
  %5 = getelementptr inbounds nuw %class.anon.1, ptr %3, i32 0, i32 0
  store ptr %1, ptr %5, align 8
  store ptr %0, ptr %4, align 8
    #dbg_declare(ptr %4, !6736, !DIExpression(), !6738)
    #dbg_declare(ptr %3, !6739, !DIExpression(), !6740)
  %6 = load ptr, ptr %4, align 8
  %7 = getelementptr inbounds nuw %"class.std::__1::function", ptr %6, i32 0, i32 0, !dbg !6741
  call void @"_ZNSt3__110__function12__value_funcIFvvEEC2B8ne210000IZ4mainE3$_0TnNS_9enable_ifIXntsr7is_sameIu7__decayIT_ES3_EE5valueEiE4typeELi0EEEOS7_"(ptr noundef nonnull align 16 dereferenceable(40) %7, ptr noundef nonnull align 8 dereferenceable(8) %3), !dbg !6741
  ret void, !dbg !6742
}

; Function Attrs: mustprogress noinline nounwind optnone uwtable
define linkonce_odr hidden void @_ZNSt3__18functionIFvvEED2Ev(ptr noundef nonnull align 16 dereferenceable(48) %0) unnamed_addr #4 comdat align 2 !dbg !6743 {
  %2 = alloca ptr, align 8
  store ptr %0, ptr %2, align 8
    #dbg_declare(ptr %2, !6744, !DIExpression(), !6745)
  %3 = load ptr, ptr %2, align 8
  %4 = getelementptr inbounds nuw %"class.std::__1::function", ptr %3, i32 0, i32 0, !dbg !6746
  call void @_ZNSt3__110__function12__value_funcIFvvEED2B8ne210000Ev(ptr noundef nonnull align 16 dereferenceable(40) %4) #3, !dbg !6746
  ret void, !dbg !6748
}

; Function Attrs: mustprogress noinline optnone uwtable
define internal void @"_ZNSt3__18functionIFvvEEC2IZ4mainE3$_1vEET_"(ptr noundef nonnull align 16 dereferenceable(48) %0, ptr %1) unnamed_addr #1 align 2 !dbg !6749 {
  %3 = alloca %class.anon.2, align 8
  %4 = alloca ptr, align 8
  %5 = getelementptr inbounds nuw %class.anon.2, ptr %3, i32 0, i32 0
  store ptr %1, ptr %5, align 8
  store ptr %0, ptr %4, align 8
    #dbg_declare(ptr %4, !6754, !DIExpression(), !6755)
    #dbg_declare(ptr %3, !6756, !DIExpression(), !6757)
  %6 = load ptr, ptr %4, align 8
  %7 = getelementptr inbounds nuw %"class.std::__1::function", ptr %6, i32 0, i32 0, !dbg !6758
  call void @"_ZNSt3__110__function12__value_funcIFvvEEC2B8ne210000IZ4mainE3$_1TnNS_9enable_ifIXntsr7is_sameIu7__decayIT_ES3_EE5valueEiE4typeELi0EEEOS7_"(ptr noundef nonnull align 16 dereferenceable(40) %7, ptr noundef nonnull align 8 dereferenceable(8) %3), !dbg !6758
  ret void, !dbg !6759
}

; Function Attrs: mustprogress noinline optnone uwtable
define internal void @"_ZNSt3__18functionIFvvEEC2IZ4mainE3$_2vEET_"(ptr noundef nonnull align 16 dereferenceable(48) %0, ptr %1) unnamed_addr #1 align 2 !dbg !6760 {
  %3 = alloca %class.anon.3, align 8
  %4 = alloca ptr, align 8
  %5 = getelementptr inbounds nuw %class.anon.3, ptr %3, i32 0, i32 0
  store ptr %1, ptr %5, align 8
  store ptr %0, ptr %4, align 8
    #dbg_declare(ptr %4, !6765, !DIExpression(), !6766)
    #dbg_declare(ptr %3, !6767, !DIExpression(), !6768)
  %6 = load ptr, ptr %4, align 8
  %7 = getelementptr inbounds nuw %"class.std::__1::function", ptr %6, i32 0, i32 0, !dbg !6769
  call void @"_ZNSt3__110__function12__value_funcIFvvEEC2B8ne210000IZ4mainE3$_2TnNS_9enable_ifIXntsr7is_sameIu7__decayIT_ES3_EE5valueEiE4typeELi0EEEOS7_"(ptr noundef nonnull align 16 dereferenceable(40) %7, ptr noundef nonnull align 8 dereferenceable(8) %3), !dbg !6769
  ret void, !dbg !6770
}

; Function Attrs: mustprogress noinline optnone uwtable
define internal void @"_ZNSt3__18functionIFvvEEC2IZ4mainE3$_3vEET_"(ptr noundef nonnull align 16 dereferenceable(48) %0, ptr %1) unnamed_addr #1 align 2 !dbg !6771 {
  %3 = alloca %class.anon.4, align 8
  %4 = alloca ptr, align 8
  %5 = getelementptr inbounds nuw %class.anon.4, ptr %3, i32 0, i32 0
  store ptr %1, ptr %5, align 8
  store ptr %0, ptr %4, align 8
    #dbg_declare(ptr %4, !6776, !DIExpression(), !6777)
    #dbg_declare(ptr %3, !6778, !DIExpression(), !6779)
  %6 = load ptr, ptr %4, align 8
  %7 = getelementptr inbounds nuw %"class.std::__1::function", ptr %6, i32 0, i32 0, !dbg !6780
  call void @"_ZNSt3__110__function12__value_funcIFvvEEC2B8ne210000IZ4mainE3$_3TnNS_9enable_ifIXntsr7is_sameIu7__decayIT_ES3_EE5valueEiE4typeELi0EEEOS7_"(ptr noundef nonnull align 16 dereferenceable(40) %7, ptr noundef nonnull align 8 dereferenceable(8) %3), !dbg !6780
  ret void, !dbg !6781
}

; Function Attrs: mustprogress noinline optnone uwtable
define internal void @"_ZNSt3__18functionIFvvEEC2IZ4mainE3$_4vEET_"(ptr noundef nonnull align 16 dereferenceable(48) %0, ptr %1) unnamed_addr #1 align 2 !dbg !6782 {
  %3 = alloca %class.anon.5, align 8
  %4 = alloca ptr, align 8
  %5 = getelementptr inbounds nuw %class.anon.5, ptr %3, i32 0, i32 0
  store ptr %1, ptr %5, align 8
  store ptr %0, ptr %4, align 8
    #dbg_declare(ptr %4, !6787, !DIExpression(), !6788)
    #dbg_declare(ptr %3, !6789, !DIExpression(), !6790)
  %6 = load ptr, ptr %4, align 8
  %7 = getelementptr inbounds nuw %"class.std::__1::function", ptr %6, i32 0, i32 0, !dbg !6791
  call void @"_ZNSt3__110__function12__value_funcIFvvEEC2B8ne210000IZ4mainE3$_4TnNS_9enable_ifIXntsr7is_sameIu7__decayIT_ES3_EE5valueEiE4typeELi0EEEOS7_"(ptr noundef nonnull align 16 dereferenceable(40) %7, ptr noundef nonnull align 8 dereferenceable(8) %3), !dbg !6791
  ret void, !dbg !6792
}

; Function Attrs: mustprogress noinline optnone uwtable
define internal void @"_ZNSt3__18functionIFvvEEC2IZ4mainE3$_5vEET_"(ptr noundef nonnull align 16 dereferenceable(48) %0, ptr %1) unnamed_addr #1 align 2 !dbg !6793 {
  %3 = alloca %class.anon.6, align 8
  %4 = alloca ptr, align 8
  %5 = getelementptr inbounds nuw %class.anon.6, ptr %3, i32 0, i32 0
  store ptr %1, ptr %5, align 8
  store ptr %0, ptr %4, align 8
    #dbg_declare(ptr %4, !6798, !DIExpression(), !6799)
    #dbg_declare(ptr %3, !6800, !DIExpression(), !6801)
  %6 = load ptr, ptr %4, align 8
  %7 = getelementptr inbounds nuw %"class.std::__1::function", ptr %6, i32 0, i32 0, !dbg !6802
  call void @"_ZNSt3__110__function12__value_funcIFvvEEC2B8ne210000IZ4mainE3$_5TnNS_9enable_ifIXntsr7is_sameIu7__decayIT_ES3_EE5valueEiE4typeELi0EEEOS7_"(ptr noundef nonnull align 16 dereferenceable(40) %7, ptr noundef nonnull align 8 dereferenceable(8) %3), !dbg !6802
  ret void, !dbg !6803
}

; Function Attrs: mustprogress noinline optnone uwtable
define internal void @"_ZNSt3__18functionIFvvEEC2IZ4mainE3$_6vEET_"(ptr noundef nonnull align 16 dereferenceable(48) %0, ptr %1) unnamed_addr #1 align 2 !dbg !6804 {
  %3 = alloca %class.anon.7, align 8
  %4 = alloca ptr, align 8
  %5 = getelementptr inbounds nuw %class.anon.7, ptr %3, i32 0, i32 0
  store ptr %1, ptr %5, align 8
  store ptr %0, ptr %4, align 8
    #dbg_declare(ptr %4, !6809, !DIExpression(), !6810)
    #dbg_declare(ptr %3, !6811, !DIExpression(), !6812)
  %6 = load ptr, ptr %4, align 8
  %7 = getelementptr inbounds nuw %"class.std::__1::function", ptr %6, i32 0, i32 0, !dbg !6813
  call void @"_ZNSt3__110__function12__value_funcIFvvEEC2B8ne210000IZ4mainE3$_6TnNS_9enable_ifIXntsr7is_sameIu7__decayIT_ES3_EE5valueEiE4typeELi0EEEOS7_"(ptr noundef nonnull align 16 dereferenceable(40) %7, ptr noundef nonnull align 8 dereferenceable(8) %3), !dbg !6813
  ret void, !dbg !6814
}

; Function Attrs: mustprogress noinline optnone uwtable
define internal void @"_ZNSt3__18functionIFvvEEC2IZ4mainE3$_7vEET_"(ptr noundef nonnull align 16 dereferenceable(48) %0, ptr %1) unnamed_addr #1 align 2 !dbg !6815 {
  %3 = alloca %class.anon.8, align 8
  %4 = alloca ptr, align 8
  %5 = getelementptr inbounds nuw %class.anon.8, ptr %3, i32 0, i32 0
  store ptr %1, ptr %5, align 8
  store ptr %0, ptr %4, align 8
    #dbg_declare(ptr %4, !6820, !DIExpression(), !6821)
    #dbg_declare(ptr %3, !6822, !DIExpression(), !6823)
  %6 = load ptr, ptr %4, align 8
  %7 = getelementptr inbounds nuw %"class.std::__1::function", ptr %6, i32 0, i32 0, !dbg !6824
  call void @"_ZNSt3__110__function12__value_funcIFvvEEC2B8ne210000IZ4mainE3$_7TnNS_9enable_ifIXntsr7is_sameIu7__decayIT_ES3_EE5valueEiE4typeELi0EEEOS7_"(ptr noundef nonnull align 16 dereferenceable(40) %7, ptr noundef nonnull align 8 dereferenceable(8) %3), !dbg !6824
  ret void, !dbg !6825
}

; Function Attrs: mustprogress noinline optnone uwtable
define internal void @"_ZNSt3__18functionIFvvEEC2IZ4mainE3$_8vEET_"(ptr noundef nonnull align 16 dereferenceable(48) %0, ptr %1) unnamed_addr #1 align 2 !dbg !6826 {
  %3 = alloca %class.anon.9, align 8
  %4 = alloca ptr, align 8
  %5 = getelementptr inbounds nuw %class.anon.9, ptr %3, i32 0, i32 0
  store ptr %1, ptr %5, align 8
  store ptr %0, ptr %4, align 8
    #dbg_declare(ptr %4, !6831, !DIExpression(), !6832)
    #dbg_declare(ptr %3, !6833, !DIExpression(), !6834)
  %6 = load ptr, ptr %4, align 8
  %7 = getelementptr inbounds nuw %"class.std::__1::function", ptr %6, i32 0, i32 0, !dbg !6835
  call void @"_ZNSt3__110__function12__value_funcIFvvEEC2B8ne210000IZ4mainE3$_8TnNS_9enable_ifIXntsr7is_sameIu7__decayIT_ES3_EE5valueEiE4typeELi0EEEOS7_"(ptr noundef nonnull align 16 dereferenceable(40) %7, ptr noundef nonnull align 8 dereferenceable(8) %3), !dbg !6835
  ret void, !dbg !6836
}

; Function Attrs: mustprogress noinline optnone uwtable
define internal void @"_ZNSt3__18functionIFvvEEC2IZ4mainE3$_9vEET_"(ptr noundef nonnull align 16 dereferenceable(48) %0, ptr %1) unnamed_addr #1 align 2 !dbg !6837 {
  %3 = alloca %class.anon.10, align 8
  %4 = alloca ptr, align 8
  %5 = getelementptr inbounds nuw %class.anon.10, ptr %3, i32 0, i32 0
  store ptr %1, ptr %5, align 8
  store ptr %0, ptr %4, align 8
    #dbg_declare(ptr %4, !6842, !DIExpression(), !6843)
    #dbg_declare(ptr %3, !6844, !DIExpression(), !6845)
  %6 = load ptr, ptr %4, align 8
  %7 = getelementptr inbounds nuw %"class.std::__1::function", ptr %6, i32 0, i32 0, !dbg !6846
  call void @"_ZNSt3__110__function12__value_funcIFvvEEC2B8ne210000IZ4mainE3$_9TnNS_9enable_ifIXntsr7is_sameIu7__decayIT_ES3_EE5valueEiE4typeELi0EEEOS7_"(ptr noundef nonnull align 16 dereferenceable(40) %7, ptr noundef nonnull align 8 dereferenceable(8) %3), !dbg !6846
  ret void, !dbg !6847
}

declare void @_ZNSt11logic_errorC2EPKc(ptr noundef nonnull align 8 dereferenceable(16), ptr noundef) unnamed_addr #7

declare void @_ZNSt13runtime_errorC2ERKNSt3__112basic_stringIcNS0_11char_traitsIcEENS0_9allocatorIcEEEE(ptr noundef nonnull align 8 dereferenceable(16), ptr noundef nonnull align 8 dereferenceable(24)) unnamed_addr #7

; Function Attrs: mustprogress noinline nounwind optnone uwtable
define linkonce_odr dso_local void @_ZN17MyCustomExceptionD0Ev(ptr noundef nonnull align 8 dereferenceable(16) %0) unnamed_addr #4 comdat align 2 !dbg !6848 {
  %2 = alloca ptr, align 8
  store ptr %0, ptr %2, align 8
    #dbg_declare(ptr %2, !6849, !DIExpression(), !6850)
  %3 = load ptr, ptr %2, align 8
  call void @_ZN17MyCustomExceptionD2Ev(ptr noundef nonnull align 8 dereferenceable(16) %3) #3, !dbg !6851
  call void @_ZdlPvm(ptr noundef %3, i64 noundef 16) #20, !dbg !6851
  ret void, !dbg !6851
}

; Function Attrs: nounwind
declare noundef ptr @_ZNKSt13runtime_error4whatEv(ptr noundef nonnull align 8 dereferenceable(16)) unnamed_addr #2

; Function Attrs: nobuiltin nounwind
declare void @_ZdlPvm(ptr noundef, i64 noundef) #9

; Function Attrs: nounwind
declare void @_ZNSt13runtime_errorD2Ev(ptr noundef nonnull align 8 dereferenceable(16)) unnamed_addr #2

; Function Attrs: mustprogress noinline nounwind optnone uwtable
define linkonce_odr dso_local void @_ZNSt3__119basic_ostringstreamIcNS_11char_traitsIcEENS_9allocatorIcEEED2Ev(ptr noundef nonnull align 8 dereferenceable(112) %0, ptr noundef %1) unnamed_addr #4 comdat align 2 !dbg !6852 {
  %3 = alloca ptr, align 8
  %4 = alloca ptr, align 8
  store ptr %0, ptr %3, align 8
    #dbg_declare(ptr %3, !6853, !DIExpression(), !6854)
  store ptr %1, ptr %4, align 8
    #dbg_declare(ptr %4, !6855, !DIExpression(), !6854)
  %5 = load ptr, ptr %3, align 8
  %6 = load ptr, ptr %4, align 8
  %7 = load ptr, ptr %6, align 8, !dbg !6857
  store ptr %7, ptr %5, align 8, !dbg !6857
  %8 = getelementptr inbounds ptr, ptr %6, i64 3, !dbg !6857
  %9 = load ptr, ptr %8, align 8, !dbg !6857
  %10 = load ptr, ptr %5, align 8, !dbg !6857
  %11 = getelementptr i8, ptr %10, i64 -24, !dbg !6857
  %12 = load i64, ptr %11, align 8, !dbg !6857
  %13 = getelementptr inbounds i8, ptr %5, i64 %12, !dbg !6857
  store ptr %9, ptr %13, align 8, !dbg !6857
  %14 = getelementptr inbounds nuw %"class.std::__1::basic_ostringstream", ptr %5, i32 0, i32 1, !dbg !6858
  call void @_ZNSt3__115basic_stringbufIcNS_11char_traitsIcEENS_9allocatorIcEEED2Ev(ptr noundef nonnull align 8 dereferenceable(100) %14) #3, !dbg !6858
  %15 = getelementptr inbounds ptr, ptr %6, i64 1, !dbg !6858
  call void @_ZNSt3__113basic_ostreamIcNS_11char_traitsIcEEED2Ev(ptr noundef nonnull align 8 dereferenceable(8) %5, ptr noundef %15) #3, !dbg !6858
  ret void, !dbg !6857
}

; Function Attrs: nounwind
declare void @_ZNSt3__19basic_iosIcNS_11char_traitsIcEEED2Ev(ptr noundef nonnull align 8 dereferenceable(148)) unnamed_addr #2

; Function Attrs: noinline nounwind optnone uwtable
define linkonce_odr dso_local void @_ZTv0_n24_NSt3__119basic_ostringstreamIcNS_11char_traitsIcEENS_9allocatorIcEEED1Ev(ptr noundef %0) unnamed_addr #10 comdat align 2 !dbg !6860 {
  %2 = alloca ptr, align 8
  store ptr %0, ptr %2, align 8
  %3 = load ptr, ptr %2, align 8, !dbg !6862
  %4 = load ptr, ptr %3, align 8, !dbg !6862
  %5 = getelementptr inbounds i8, ptr %4, i64 -24, !dbg !6862
  %6 = load i64, ptr %5, align 8, !dbg !6862
  %7 = getelementptr inbounds i8, ptr %3, i64 %6, !dbg !6862
  tail call void @_ZNSt3__119basic_ostringstreamIcNS_11char_traitsIcEENS_9allocatorIcEEED1Ev(ptr noundef nonnull align 8 dereferenceable(112) %7) #3, !dbg !6862
  ret void, !dbg !6862
}

; Function Attrs: mustprogress noinline nounwind optnone uwtable
define linkonce_odr dso_local void @_ZNSt3__115basic_stringbufIcNS_11char_traitsIcEENS_9allocatorIcEEED2Ev(ptr noundef nonnull align 8 dereferenceable(100) %0) unnamed_addr #4 comdat align 2 !dbg !6863 {
  %2 = alloca ptr, align 8
  store ptr %0, ptr %2, align 8
    #dbg_declare(ptr %2, !6868, !DIExpression(), !6870)
  %3 = load ptr, ptr %2, align 8
  store ptr getelementptr inbounds inrange(-16, 112) ({ [16 x ptr] }, ptr @_ZTVNSt3__115basic_stringbufIcNS_11char_traitsIcEENS_9allocatorIcEEEE, i32 0, i32 0, i32 2), ptr %3, align 8, !dbg !6871
  %4 = getelementptr inbounds nuw %"class.std::__1::basic_stringbuf", ptr %3, i32 0, i32 1, !dbg !6872
  call void @_ZNSt3__112basic_stringIcNS_11char_traitsIcEENS_9allocatorIcEEED1Ev(ptr noundef nonnull align 8 dereferenceable(24) %4) #3, !dbg !6872
  call void @_ZNSt3__115basic_streambufIcNS_11char_traitsIcEEED2Ev(ptr noundef nonnull align 8 dereferenceable(64) %3) #3, !dbg !6872
  ret void, !dbg !6871
}

; Function Attrs: nounwind
declare void @_ZNSt3__113basic_ostreamIcNS_11char_traitsIcEEED2Ev(ptr noundef nonnull align 8 dereferenceable(8), ptr noundef) unnamed_addr #2

; Function Attrs: nounwind
declare void @_ZNSt3__115basic_streambufIcNS_11char_traitsIcEEED2Ev(ptr noundef nonnull align 8 dereferenceable(64)) unnamed_addr #2

declare void @_ZNSt11logic_errorC2ERKNSt3__112basic_stringIcNS0_11char_traitsIcEENS0_9allocatorIcEEEE(ptr noundef nonnull align 8 dereferenceable(16), ptr noundef nonnull align 8 dereferenceable(24)) unnamed_addr #7

; Function Attrs: mustprogress noinline nounwind optnone uwtable
define linkonce_odr dso_local void @_ZN22AnotherCustomExceptionD0Ev(ptr noundef nonnull align 8 dereferenceable(16) %0) unnamed_addr #4 comdat align 2 !dbg !6874 {
  %2 = alloca ptr, align 8
  store ptr %0, ptr %2, align 8
    #dbg_declare(ptr %2, !6875, !DIExpression(), !6876)
  %3 = load ptr, ptr %2, align 8
  call void @_ZN22AnotherCustomExceptionD2Ev(ptr noundef nonnull align 8 dereferenceable(16) %3) #3, !dbg !6877
  call void @_ZdlPvm(ptr noundef %3, i64 noundef 16) #20, !dbg !6877
  ret void, !dbg !6877
}

; Function Attrs: nounwind
declare noundef ptr @_ZNKSt11logic_error4whatEv(ptr noundef nonnull align 8 dereferenceable(16)) unnamed_addr #2

; Function Attrs: nounwind
declare void @_ZNSt11logic_errorD2Ev(ptr noundef nonnull align 8 dereferenceable(16)) unnamed_addr #2

; Function Attrs: mustprogress noinline optnone uwtable
define linkonce_odr hidden void @_ZNKSt3__18functionIFvvEEclEv(ptr noundef nonnull align 16 dereferenceable(48) %0) #1 comdat align 2 !dbg !6878 {
  %2 = alloca ptr, align 8
  store ptr %0, ptr %2, align 8
    #dbg_declare(ptr %2, !6879, !DIExpression(), !6881)
  %3 = load ptr, ptr %2, align 8
  %4 = getelementptr inbounds nuw %"class.std::__1::function", ptr %3, i32 0, i32 0, !dbg !6882
  call void @_ZNKSt3__110__function12__value_funcIFvvEEclB8ne210000Ev(ptr noundef nonnull align 16 dereferenceable(40) %4), !dbg !6882
  ret void, !dbg !6883
}

; Function Attrs: mustprogress noinline optnone uwtable
define linkonce_odr hidden void @_ZNKSt3__110__function12__value_funcIFvvEEclB8ne210000Ev(ptr noundef nonnull align 16 dereferenceable(40) %0) #1 comdat align 2 !dbg !6884 {
  %2 = alloca ptr, align 8
  store ptr %0, ptr %2, align 8
    #dbg_declare(ptr %2, !6885, !DIExpression(), !6887)
  %3 = load ptr, ptr %2, align 8
  %4 = getelementptr inbounds nuw %"class.std::__1::__function::__value_func", ptr %3, i32 0, i32 1, !dbg !6888
  %5 = load ptr, ptr %4, align 16, !dbg !6888
  %6 = icmp eq ptr %5, null, !dbg !6890
  br i1 %6, label %7, label %8, !dbg !6890

7:                                                ; preds = %1
  call void @_ZNSt3__125__throw_bad_function_callB8ne210000Ev() #17, !dbg !6891
  unreachable, !dbg !6891

8:                                                ; preds = %1
  %9 = getelementptr inbounds nuw %"class.std::__1::__function::__value_func", ptr %3, i32 0, i32 1, !dbg !6892
  %10 = load ptr, ptr %9, align 16, !dbg !6892
  %11 = load ptr, ptr %10, align 8, !dbg !6893
  %12 = getelementptr inbounds ptr, ptr %11, i64 6, !dbg !6893
  %13 = load ptr, ptr %12, align 8, !dbg !6893
  call void %13(ptr noundef nonnull align 8 dereferenceable(8) %10), !dbg !6893
  ret void, !dbg !6894
}

; Function Attrs: mustprogress noinline noreturn optnone uwtable
define linkonce_odr hidden void @_ZNSt3__125__throw_bad_function_callB8ne210000Ev() #11 comdat !dbg !6895 {
  %1 = call ptr @__cxa_allocate_exception(i64 8) #3, !dbg !6896
  call void @llvm.memset.p0.i64(ptr align 16 %1, i8 0, i64 8, i1 false), !dbg !6897
  call void @_ZNSt3__117bad_function_callC2B8ne210000Ev(ptr noundef nonnull align 8 dereferenceable(8) %1) #3, !dbg !6897
  call void @__cxa_throw(ptr %1, ptr @_ZTINSt3__117bad_function_callE, ptr @_ZNSt3__117bad_function_callD1Ev) #17, !dbg !6896
  unreachable, !dbg !6896
}

; Function Attrs: nocallback nofree nounwind willreturn memory(argmem: write)
declare void @llvm.memset.p0.i64(ptr writeonly captures(none), i8, i64, i1 immarg) #12

; Function Attrs: mustprogress noinline nounwind optnone uwtable
define linkonce_odr hidden void @_ZNSt3__117bad_function_callC2B8ne210000Ev(ptr noundef nonnull align 8 dereferenceable(8) %0) unnamed_addr #4 comdat align 2 !dbg !6898 {
  %2 = alloca ptr, align 8
  store ptr %0, ptr %2, align 8
    #dbg_declare(ptr %2, !6904, !DIExpression(), !6906)
  %3 = load ptr, ptr %2, align 8
  call void @_ZNSt9exceptionC2B8ne210000Ev(ptr noundef nonnull align 8 dereferenceable(8) %3) #3, !dbg !6907
  store ptr getelementptr inbounds inrange(-16, 24) ({ [5 x ptr] }, ptr @_ZTVNSt3__117bad_function_callE, i32 0, i32 0, i32 2), ptr %3, align 8, !dbg !6908
  ret void, !dbg !6908
}

; Function Attrs: nounwind
declare void @_ZNSt3__117bad_function_callD1Ev(ptr noundef nonnull align 8 dereferenceable(8)) unnamed_addr #2

; Function Attrs: mustprogress noinline nounwind optnone uwtable
define linkonce_odr hidden void @_ZNSt9exceptionC2B8ne210000Ev(ptr noundef nonnull align 8 dereferenceable(8) %0) unnamed_addr #4 comdat align 2 !dbg !6909 {
  %2 = alloca ptr, align 8
  store ptr %0, ptr %2, align 8
    #dbg_declare(ptr %2, !6914, !DIExpression(), !6916)
  %3 = load ptr, ptr %2, align 8
  store ptr getelementptr inbounds inrange(-16, 24) ({ [5 x ptr] }, ptr @_ZTVSt9exception, i32 0, i32 0, i32 2), ptr %3, align 8, !dbg !6917
  ret void, !dbg !6918
}

; Function Attrs: mustprogress noinline nounwind optnone uwtable
define linkonce_odr hidden void @_ZNSt3__19allocatorIcEC2B8ne210000Ev(ptr noundef nonnull align 1 dereferenceable(1) %0) unnamed_addr #4 comdat align 2 !dbg !6919 {
  %2 = alloca ptr, align 8
  store ptr %0, ptr %2, align 8
    #dbg_declare(ptr %2, !6920, !DIExpression(), !6922)
  %3 = load ptr, ptr %2, align 8
  call void @_ZNSt3__116__non_trivial_ifILb1ENS_9allocatorIcEEEC2B8ne210000Ev(ptr noundef nonnull align 1 dereferenceable(1) %3) #3, !dbg !6923
  ret void, !dbg !6924
}

declare void @_ZNSt3__112basic_stringIcNS_11char_traitsIcEENS_9allocatorIcEEE6__initEPKcm(ptr noundef nonnull align 8 dereferenceable(24), ptr noundef, i64 noundef) #7

; Function Attrs: mustprogress noinline nounwind optnone uwtable
define linkonce_odr hidden noundef i64 @_ZNSt3__111char_traitsIcE6lengthB8ne210000EPKc(ptr noundef %0) #4 comdat align 2 !dbg !6925 {
  %2 = alloca ptr, align 8
  store ptr %0, ptr %2, align 8
    #dbg_declare(ptr %2, !6926, !DIExpression(), !6927)
  %3 = load ptr, ptr %2, align 8, !dbg !6928
  %4 = call noundef i64 @_ZNSt3__118__constexpr_strlenB8ne210000IcEEmPKT_(ptr noundef %3) #3, !dbg !6929
  ret i64 %4, !dbg !6930
}

; Function Attrs: mustprogress noinline nounwind optnone uwtable
define linkonce_odr hidden void @_ZNSt3__116__non_trivial_ifILb1ENS_9allocatorIcEEEC2B8ne210000Ev(ptr noundef nonnull align 1 dereferenceable(1) %0) unnamed_addr #4 comdat align 2 !dbg !6931 {
  %2 = alloca ptr, align 8
  store ptr %0, ptr %2, align 8
    #dbg_declare(ptr %2, !6932, !DIExpression(), !6934)
  %3 = load ptr, ptr %2, align 8
  ret void, !dbg !6935
}

; Function Attrs: mustprogress noinline nounwind optnone uwtable
define linkonce_odr hidden noundef i64 @_ZNSt3__118__constexpr_strlenB8ne210000IcEEmPKT_(ptr noundef %0) #4 comdat !dbg !6936 {
  %2 = alloca ptr, align 8
  store ptr %0, ptr %2, align 8
    #dbg_declare(ptr %2, !6940, !DIExpression(), !6941)
  %3 = load ptr, ptr %2, align 8, !dbg !6942
  %4 = call i64 @strlen(ptr noundef %3) #3, !dbg !6943
  ret i64 %4, !dbg !6944
}

; Function Attrs: nounwind
declare i64 @strlen(ptr noundef) #2

; Function Attrs: mustprogress noinline optnone uwtable
define linkonce_odr hidden noundef nonnull align 8 dereferenceable(8) ptr @_ZNSt3__124__put_character_sequenceB8ne210000IcNS_11char_traitsIcEEEERNS_13basic_ostreamIT_T0_EES7_PKS4_m(ptr noundef nonnull align 8 dereferenceable(8) %0, ptr noundef %1, i64 noundef %2) #1 comdat personality ptr @__gxx_personality_v0 !dbg !801 {
  %4 = alloca ptr, align 8
  %5 = alloca ptr, align 8
  %6 = alloca i64, align 8
  %7 = alloca %"class.std::__1::basic_ostream<char>::sentry", align 8
  %8 = alloca ptr, align 8
  %9 = alloca i32, align 4
  %10 = alloca %"class.std::__1::ostreambuf_iterator", align 8
  %11 = alloca %"class.std::__1::ostreambuf_iterator", align 8
  store ptr %0, ptr %4, align 8
    #dbg_declare(ptr %4, !6945, !DIExpression(), !6946)
  store ptr %1, ptr %5, align 8
    #dbg_declare(ptr %5, !6947, !DIExpression(), !6948)
  store i64 %2, ptr %6, align 8
    #dbg_declare(ptr %6, !6949, !DIExpression(), !6950)
    #dbg_declare(ptr %7, !6951, !DIExpression(), !6954)
  %12 = load ptr, ptr %4, align 8, !dbg !6955, !nonnull !103, !align !5989
  invoke void @_ZNSt3__113basic_ostreamIcNS_11char_traitsIcEEE6sentryC1ERS3_(ptr noundef nonnull align 8 dereferenceable(16) %7, ptr noundef nonnull align 8 dereferenceable(8) %12)
          to label %13 unwind label %64, !dbg !6954

13:                                               ; preds = %3
  %14 = invoke noundef zeroext i1 @_ZNKSt3__113basic_ostreamIcNS_11char_traitsIcEEE6sentrycvbB8ne210000Ev(ptr noundef nonnull align 8 dereferenceable(16) %7)
          to label %15 unwind label %68, !dbg !6956

15:                                               ; preds = %13
  br i1 %14, label %16, label %84, !dbg !6956

16:                                               ; preds = %15
  %17 = load ptr, ptr %4, align 8, !dbg !6958, !nonnull !103, !align !5989
  call void @_ZNSt3__119ostreambuf_iteratorIcNS_11char_traitsIcEEEC2B8ne210000ERNS_13basic_ostreamIcS2_EE(ptr noundef nonnull align 8 dereferenceable(8) %11, ptr noundef nonnull align 8 dereferenceable(8) %17) #3, !dbg !6961
  %18 = load ptr, ptr %5, align 8, !dbg !6962
  %19 = load ptr, ptr %4, align 8, !dbg !6963, !nonnull !103, !align !5989
  %20 = load ptr, ptr %19, align 8, !dbg !6963
  %21 = getelementptr i8, ptr %20, i64 -24, !dbg !6963
  %22 = load i64, ptr %21, align 8, !dbg !6963
  %23 = getelementptr inbounds i8, ptr %19, i64 %22, !dbg !6963
  %24 = invoke noundef i32 @_ZNKSt3__18ios_base5flagsB8ne210000Ev(ptr noundef nonnull align 8 dereferenceable(136) %23)
          to label %25 unwind label %68, !dbg !6964

25:                                               ; preds = %16
  %26 = and i32 %24, 176, !dbg !6965
  %27 = icmp eq i32 %26, 32, !dbg !6966
  br i1 %27, label %28, label %32, !dbg !6967

28:                                               ; preds = %25
  %29 = load ptr, ptr %5, align 8, !dbg !6968
  %30 = load i64, ptr %6, align 8, !dbg !6969
  %31 = getelementptr inbounds nuw i8, ptr %29, i64 %30, !dbg !6970
  br label %34, !dbg !6967

32:                                               ; preds = %25
  %33 = load ptr, ptr %5, align 8, !dbg !6971
  br label %34, !dbg !6967

34:                                               ; preds = %32, %28
  %35 = phi ptr [ %31, %28 ], [ %33, %32 ], !dbg !6967
  %36 = load ptr, ptr %5, align 8, !dbg !6972
  %37 = load i64, ptr %6, align 8, !dbg !6973
  %38 = getelementptr inbounds nuw i8, ptr %36, i64 %37, !dbg !6974
  %39 = load ptr, ptr %4, align 8, !dbg !6975, !nonnull !103, !align !5989
  %40 = load ptr, ptr %39, align 8, !dbg !6975
  %41 = getelementptr i8, ptr %40, i64 -24, !dbg !6975
  %42 = load i64, ptr %41, align 8, !dbg !6975
  %43 = getelementptr inbounds i8, ptr %39, i64 %42, !dbg !6975
  %44 = load ptr, ptr %4, align 8, !dbg !6976, !nonnull !103, !align !5989
  %45 = load ptr, ptr %44, align 8, !dbg !6976
  %46 = getelementptr i8, ptr %45, i64 -24, !dbg !6976
  %47 = load i64, ptr %46, align 8, !dbg !6976
  %48 = getelementptr inbounds i8, ptr %44, i64 %47, !dbg !6976
  %49 = invoke noundef signext i8 @_ZNKSt3__19basic_iosIcNS_11char_traitsIcEEE4fillB8ne210000Ev(ptr noundef nonnull align 8 dereferenceable(148) %48)
          to label %50 unwind label %68, !dbg !6977

50:                                               ; preds = %34
  %51 = getelementptr inbounds nuw %"class.std::__1::ostreambuf_iterator", ptr %11, i32 0, i32 0, !dbg !6978
  %52 = load ptr, ptr %51, align 8, !dbg !6978
  %53 = invoke ptr @_ZNSt3__116__pad_and_outputB8ne210000IcNS_11char_traitsIcEEEENS_19ostreambuf_iteratorIT_T0_EES6_PKS4_S8_S8_RNS_8ios_baseES4_(ptr %52, ptr noundef %18, ptr noundef %35, ptr noundef %38, ptr noundef nonnull align 8 dereferenceable(136) %43, i8 noundef signext %49)
          to label %54 unwind label %68, !dbg !6978

54:                                               ; preds = %50
  %55 = getelementptr inbounds nuw %"class.std::__1::ostreambuf_iterator", ptr %10, i32 0, i32 0, !dbg !6978
  store ptr %53, ptr %55, align 8, !dbg !6978
  %56 = call noundef zeroext i1 @_ZNKSt3__119ostreambuf_iteratorIcNS_11char_traitsIcEEE6failedB8ne210000Ev(ptr noundef nonnull align 8 dereferenceable(8) %10) #3, !dbg !6979
  br i1 %56, label %57, label %83, !dbg !6978

57:                                               ; preds = %54
  %58 = load ptr, ptr %4, align 8, !dbg !6980, !nonnull !103, !align !5989
  %59 = load ptr, ptr %58, align 8, !dbg !6980
  %60 = getelementptr i8, ptr %59, i64 -24, !dbg !6980
  %61 = load i64, ptr %60, align 8, !dbg !6980
  %62 = getelementptr inbounds i8, ptr %58, i64 %61, !dbg !6980
  invoke void @_ZNSt3__19basic_iosIcNS_11char_traitsIcEEE8setstateB8ne210000Ej(ptr noundef nonnull align 8 dereferenceable(148) %62, i32 noundef 5)
          to label %63 unwind label %68, !dbg !6981

63:                                               ; preds = %57
  br label %83, !dbg !6980

64:                                               ; preds = %3
  %65 = landingpad { ptr, i32 }
          catch ptr null, !dbg !6982
  %66 = extractvalue { ptr, i32 } %65, 0, !dbg !6982
  store ptr %66, ptr %8, align 8, !dbg !6982
  %67 = extractvalue { ptr, i32 } %65, 1, !dbg !6982
  store i32 %67, ptr %9, align 4, !dbg !6982
  br label %72, !dbg !6982

68:                                               ; preds = %57, %50, %34, %16, %13
  %69 = landingpad { ptr, i32 }
          catch ptr null, !dbg !6983
  %70 = extractvalue { ptr, i32 } %69, 0, !dbg !6983
  store ptr %70, ptr %8, align 8, !dbg !6983
  %71 = extractvalue { ptr, i32 } %69, 1, !dbg !6983
  store i32 %71, ptr %9, align 4, !dbg !6983
  call void @_ZNSt3__113basic_ostreamIcNS_11char_traitsIcEEE6sentryD1Ev(ptr noundef nonnull align 8 dereferenceable(16) %7) #3, !dbg !6984
  br label %72, !dbg !6984

72:                                               ; preds = %68, %64
  %73 = load ptr, ptr %8, align 8, !dbg !6985
  %74 = call ptr @__cxa_begin_catch(ptr %73) #3, !dbg !6985
  %75 = load ptr, ptr %4, align 8, !dbg !6986, !nonnull !103, !align !5989
  %76 = load ptr, ptr %75, align 8, !dbg !6986
  %77 = getelementptr i8, ptr %76, i64 -24, !dbg !6986
  %78 = load i64, ptr %77, align 8, !dbg !6986
  %79 = getelementptr inbounds i8, ptr %75, i64 %78, !dbg !6986
  invoke void @_ZNSt3__18ios_base33__set_badbit_and_consider_rethrowEv(ptr noundef nonnull align 8 dereferenceable(136) %79)
          to label %80 unwind label %85, !dbg !6988

80:                                               ; preds = %72
  call void @__cxa_end_catch(), !dbg !6989
  br label %81, !dbg !6989

81:                                               ; preds = %80, %84
  %82 = load ptr, ptr %4, align 8, !dbg !6990, !nonnull !103, !align !5989
  ret ptr %82, !dbg !6991

83:                                               ; preds = %63, %54
  br label %84, !dbg !6992

84:                                               ; preds = %83, %15
  call void @_ZNSt3__113basic_ostreamIcNS_11char_traitsIcEEE6sentryD1Ev(ptr noundef nonnull align 8 dereferenceable(16) %7) #3, !dbg !6984
  br label %81, !dbg !6985

85:                                               ; preds = %72
  %86 = landingpad { ptr, i32 }
          cleanup, !dbg !6993
  %87 = extractvalue { ptr, i32 } %86, 0, !dbg !6993
  store ptr %87, ptr %8, align 8, !dbg !6993
  %88 = extractvalue { ptr, i32 } %86, 1, !dbg !6993
  store i32 %88, ptr %9, align 4, !dbg !6993
  invoke void @__cxa_end_catch()
          to label %89 unwind label %95, !dbg !6989

89:                                               ; preds = %85
  br label %90, !dbg !6989

90:                                               ; preds = %89
  %91 = load ptr, ptr %8, align 8, !dbg !6989
  %92 = load i32, ptr %9, align 4, !dbg !6989
  %93 = insertvalue { ptr, i32 } poison, ptr %91, 0, !dbg !6989
  %94 = insertvalue { ptr, i32 } %93, i32 %92, 1, !dbg !6989
  resume { ptr, i32 } %94, !dbg !6989

95:                                               ; preds = %85
  %96 = landingpad { ptr, i32 }
          catch ptr null, !dbg !6989
  %97 = extractvalue { ptr, i32 } %96, 0, !dbg !6989
  call void @__clang_call_terminate(ptr %97) #18, !dbg !6989
  unreachable, !dbg !6989
}

; Function Attrs: mustprogress noinline nounwind optnone uwtable
define linkonce_odr hidden noundef ptr @_ZNKSt3__112basic_stringIcNS_11char_traitsIcEENS_9allocatorIcEEE4dataB8ne210000Ev(ptr noundef nonnull align 8 dereferenceable(24) %0) #4 comdat align 2 !dbg !6994 {
  %2 = alloca ptr, align 8
  store ptr %0, ptr %2, align 8
    #dbg_declare(ptr %2, !6995, !DIExpression(), !6996)
  %3 = load ptr, ptr %2, align 8
  %4 = call noundef ptr @_ZNKSt3__112basic_stringIcNS_11char_traitsIcEENS_9allocatorIcEEE13__get_pointerB8ne210000Ev(ptr noundef nonnull align 8 dereferenceable(24) %3) #3, !dbg !6997
  %5 = call noundef ptr @_ZNSt3__112__to_addressB8ne210000IKcEEPT_S3_(ptr noundef %4) #3, !dbg !6998
  ret ptr %5, !dbg !6999
}

; Function Attrs: mustprogress noinline nounwind optnone uwtable
define linkonce_odr hidden noundef i64 @_ZNKSt3__112basic_stringIcNS_11char_traitsIcEENS_9allocatorIcEEE4sizeB8ne210000Ev(ptr noundef nonnull align 8 dereferenceable(24) %0) #4 comdat align 2 !dbg !7000 {
  %2 = alloca ptr, align 8
  store ptr %0, ptr %2, align 8
    #dbg_declare(ptr %2, !7001, !DIExpression(), !7002)
  %3 = load ptr, ptr %2, align 8
  %4 = call noundef zeroext i1 @_ZNKSt3__112basic_stringIcNS_11char_traitsIcEENS_9allocatorIcEEE9__is_longB8ne210000Ev(ptr noundef nonnull align 8 dereferenceable(24) %3) #3, !dbg !7003
  br i1 %4, label %5, label %7, !dbg !7003

5:                                                ; preds = %1
  %6 = call noundef i64 @_ZNKSt3__112basic_stringIcNS_11char_traitsIcEENS_9allocatorIcEEE15__get_long_sizeB8ne210000Ev(ptr noundef nonnull align 8 dereferenceable(24) %3) #3, !dbg !7004
  br label %9, !dbg !7003

7:                                                ; preds = %1
  %8 = call noundef i64 @_ZNKSt3__112basic_stringIcNS_11char_traitsIcEENS_9allocatorIcEEE16__get_short_sizeB8ne210000Ev(ptr noundef nonnull align 8 dereferenceable(24) %3) #3, !dbg !7005
  br label %9, !dbg !7003

9:                                                ; preds = %7, %5
  %10 = phi i64 [ %6, %5 ], [ %8, %7 ], !dbg !7003
  ret i64 %10, !dbg !7006
}

declare void @_ZNSt3__113basic_ostreamIcNS_11char_traitsIcEEE6sentryC1ERS3_(ptr noundef nonnull align 8 dereferenceable(16), ptr noundef nonnull align 8 dereferenceable(8)) unnamed_addr #7

; Function Attrs: mustprogress noinline nounwind optnone uwtable
define linkonce_odr hidden noundef zeroext i1 @_ZNKSt3__113basic_ostreamIcNS_11char_traitsIcEEE6sentrycvbB8ne210000Ev(ptr noundef nonnull align 8 dereferenceable(16) %0) #4 comdat align 2 !dbg !7007 {
  %2 = alloca ptr, align 8
  store ptr %0, ptr %2, align 8
    #dbg_declare(ptr %2, !7013, !DIExpression(), !7015)
  %3 = load ptr, ptr %2, align 8
  %4 = getelementptr inbounds nuw %"class.std::__1::basic_ostream<char>::sentry", ptr %3, i32 0, i32 0, !dbg !7016
  %5 = load i8, ptr %4, align 8, !dbg !7016
  %6 = trunc i8 %5 to i1, !dbg !7016
  ret i1 %6, !dbg !7017
}

; Function Attrs: mustprogress noinline optnone uwtable
define linkonce_odr hidden ptr @_ZNSt3__116__pad_and_outputB8ne210000IcNS_11char_traitsIcEEEENS_19ostreambuf_iteratorIT_T0_EES6_PKS4_S8_S8_RNS_8ios_baseES4_(ptr %0, ptr noundef %1, ptr noundef %2, ptr noundef %3, ptr noundef nonnull align 8 dereferenceable(136) %4, i8 noundef signext %5) #1 comdat personality ptr @__gxx_personality_v0 !dbg !7018 {
  %7 = alloca %"class.std::__1::ostreambuf_iterator", align 8
  %8 = alloca %"class.std::__1::ostreambuf_iterator", align 8
  %9 = alloca ptr, align 8
  %10 = alloca ptr, align 8
  %11 = alloca ptr, align 8
  %12 = alloca ptr, align 8
  %13 = alloca i8, align 1
  %14 = alloca i64, align 8
  %15 = alloca i64, align 8
  %16 = alloca i64, align 8
  %17 = alloca %"class.std::__1::basic_string", align 8
  %18 = alloca ptr, align 8
  %19 = alloca i32, align 4
  %20 = alloca i32, align 4
  %21 = getelementptr inbounds nuw %"class.std::__1::ostreambuf_iterator", ptr %8, i32 0, i32 0
  store ptr %0, ptr %21, align 8
    #dbg_declare(ptr %8, !7023, !DIExpression(), !7024)
  store ptr %1, ptr %9, align 8
    #dbg_declare(ptr %9, !7025, !DIExpression(), !7026)
  store ptr %2, ptr %10, align 8
    #dbg_declare(ptr %10, !7027, !DIExpression(), !7028)
  store ptr %3, ptr %11, align 8
    #dbg_declare(ptr %11, !7029, !DIExpression(), !7030)
  store ptr %4, ptr %12, align 8
    #dbg_declare(ptr %12, !7031, !DIExpression(), !7032)
  store i8 %5, ptr %13, align 1
    #dbg_declare(ptr %13, !7033, !DIExpression(), !7034)
  %22 = getelementptr inbounds nuw %"class.std::__1::ostreambuf_iterator", ptr %8, i32 0, i32 0, !dbg !7035
  %23 = load ptr, ptr %22, align 8, !dbg !7035
  %24 = icmp eq ptr %23, null, !dbg !7037
  br i1 %24, label %25, label %26, !dbg !7037

25:                                               ; preds = %6
  call void @llvm.memcpy.p0.p0.i64(ptr align 8 %7, ptr align 8 %8, i64 8, i1 false), !dbg !7038
  br label %107, !dbg !7039

26:                                               ; preds = %6
    #dbg_declare(ptr %14, !7040, !DIExpression(), !7044)
  %27 = load ptr, ptr %11, align 8, !dbg !7045
  %28 = load ptr, ptr %9, align 8, !dbg !7046
  %29 = ptrtoint ptr %27 to i64, !dbg !7047
  %30 = ptrtoint ptr %28 to i64, !dbg !7047
  %31 = sub i64 %29, %30, !dbg !7047
  store i64 %31, ptr %14, align 8, !dbg !7044
    #dbg_declare(ptr %15, !7048, !DIExpression(), !7049)
  %32 = load ptr, ptr %12, align 8, !dbg !7050, !nonnull !103, !align !5989
  %33 = call noundef i64 @_ZNKSt3__18ios_base5widthB8ne210000Ev(ptr noundef nonnull align 8 dereferenceable(136) %32), !dbg !7051
  store i64 %33, ptr %15, align 8, !dbg !7049
  %34 = load i64, ptr %15, align 8, !dbg !7052
  %35 = load i64, ptr %14, align 8, !dbg !7054
  %36 = icmp sgt i64 %34, %35, !dbg !7055
  br i1 %36, label %37, label %41, !dbg !7055

37:                                               ; preds = %26
  %38 = load i64, ptr %14, align 8, !dbg !7056
  %39 = load i64, ptr %15, align 8, !dbg !7057
  %40 = sub nsw i64 %39, %38, !dbg !7057
  store i64 %40, ptr %15, align 8, !dbg !7057
  br label %42, !dbg !7058

41:                                               ; preds = %26
  store i64 0, ptr %15, align 8, !dbg !7059
  br label %42

42:                                               ; preds = %41, %37
    #dbg_declare(ptr %16, !7060, !DIExpression(), !7061)
  %43 = load ptr, ptr %10, align 8, !dbg !7062
  %44 = load ptr, ptr %9, align 8, !dbg !7063
  %45 = ptrtoint ptr %43 to i64, !dbg !7064
  %46 = ptrtoint ptr %44 to i64, !dbg !7064
  %47 = sub i64 %45, %46, !dbg !7064
  store i64 %47, ptr %16, align 8, !dbg !7061
  %48 = load i64, ptr %16, align 8, !dbg !7065
  %49 = icmp sgt i64 %48, 0, !dbg !7067
  br i1 %49, label %50, label %61, !dbg !7067

50:                                               ; preds = %42
  %51 = getelementptr inbounds nuw %"class.std::__1::ostreambuf_iterator", ptr %8, i32 0, i32 0, !dbg !7068
  %52 = load ptr, ptr %51, align 8, !dbg !7068
  %53 = load ptr, ptr %9, align 8, !dbg !7071
  %54 = load i64, ptr %16, align 8, !dbg !7072
  %55 = call noundef i64 @_ZNSt3__115basic_streambufIcNS_11char_traitsIcEEE5sputnB8ne210000EPKcl(ptr noundef nonnull align 8 dereferenceable(64) %52, ptr noundef %53, i64 noundef %54), !dbg !7073
  %56 = load i64, ptr %16, align 8, !dbg !7074
  %57 = icmp ne i64 %55, %56, !dbg !7075
  br i1 %57, label %58, label %60, !dbg !7075

58:                                               ; preds = %50
  %59 = getelementptr inbounds nuw %"class.std::__1::ostreambuf_iterator", ptr %8, i32 0, i32 0, !dbg !7076
  store ptr null, ptr %59, align 8, !dbg !7078
  call void @llvm.memcpy.p0.p0.i64(ptr align 8 %7, ptr align 8 %8, i64 8, i1 false), !dbg !7079
  br label %107, !dbg !7080

60:                                               ; preds = %50
  br label %61, !dbg !7081

61:                                               ; preds = %60, %42
  %62 = load i64, ptr %15, align 8, !dbg !7082
  %63 = icmp sgt i64 %62, 0, !dbg !7084
  br i1 %63, label %64, label %85, !dbg !7084

64:                                               ; preds = %61
    #dbg_declare(ptr %17, !7085, !DIExpression(), !7087)
  %65 = load i64, ptr %15, align 8, !dbg !7088
  %66 = load i8, ptr %13, align 1, !dbg !7089
  call void @_ZNSt3__112basic_stringIcNS_11char_traitsIcEENS_9allocatorIcEEEC2B8ne210000Emc(ptr noundef nonnull align 8 dereferenceable(24) %17, i64 noundef %65, i8 noundef signext %66), !dbg !7087
  %67 = getelementptr inbounds nuw %"class.std::__1::ostreambuf_iterator", ptr %8, i32 0, i32 0, !dbg !7090
  %68 = load ptr, ptr %67, align 8, !dbg !7090
  %69 = call noundef ptr @_ZNSt3__112basic_stringIcNS_11char_traitsIcEENS_9allocatorIcEEE4dataB8ne210000Ev(ptr noundef nonnull align 8 dereferenceable(24) %17) #3, !dbg !7092
  %70 = load i64, ptr %15, align 8, !dbg !7093
  %71 = invoke noundef i64 @_ZNSt3__115basic_streambufIcNS_11char_traitsIcEEE5sputnB8ne210000EPKcl(ptr noundef nonnull align 8 dereferenceable(64) %68, ptr noundef %69, i64 noundef %70)
          to label %72 unwind label %77, !dbg !7094

72:                                               ; preds = %64
  %73 = load i64, ptr %15, align 8, !dbg !7095
  %74 = icmp ne i64 %71, %73, !dbg !7096
  br i1 %74, label %75, label %81, !dbg !7096

75:                                               ; preds = %72
  %76 = getelementptr inbounds nuw %"class.std::__1::ostreambuf_iterator", ptr %8, i32 0, i32 0, !dbg !7097
  store ptr null, ptr %76, align 8, !dbg !7099
  call void @llvm.memcpy.p0.p0.i64(ptr align 8 %7, ptr align 8 %8, i64 8, i1 false), !dbg !7100
  store i32 1, ptr %20, align 4
  br label %82, !dbg !7101

77:                                               ; preds = %64
  %78 = landingpad { ptr, i32 }
          cleanup, !dbg !7102
  %79 = extractvalue { ptr, i32 } %78, 0, !dbg !7102
  store ptr %79, ptr %18, align 8, !dbg !7102
  %80 = extractvalue { ptr, i32 } %78, 1, !dbg !7102
  store i32 %80, ptr %19, align 4, !dbg !7102
  call void @_ZNSt3__112basic_stringIcNS_11char_traitsIcEENS_9allocatorIcEEED1Ev(ptr noundef nonnull align 8 dereferenceable(24) %17) #3, !dbg !7103
  br label %110, !dbg !7103

81:                                               ; preds = %72
  store i32 0, ptr %20, align 4, !dbg !7103
  br label %82, !dbg !7103

82:                                               ; preds = %81, %75
  call void @_ZNSt3__112basic_stringIcNS_11char_traitsIcEENS_9allocatorIcEEED1Ev(ptr noundef nonnull align 8 dereferenceable(24) %17) #3, !dbg !7103
  %83 = load i32, ptr %20, align 4
  switch i32 %83, label %115 [
    i32 0, label %84
    i32 1, label %107
  ]

84:                                               ; preds = %82
  br label %85, !dbg !7104

85:                                               ; preds = %84, %61
  %86 = load ptr, ptr %11, align 8, !dbg !7105
  %87 = load ptr, ptr %10, align 8, !dbg !7106
  %88 = ptrtoint ptr %86 to i64, !dbg !7107
  %89 = ptrtoint ptr %87 to i64, !dbg !7107
  %90 = sub i64 %88, %89, !dbg !7107
  store i64 %90, ptr %16, align 8, !dbg !7108
  %91 = load i64, ptr %16, align 8, !dbg !7109
  %92 = icmp sgt i64 %91, 0, !dbg !7111
  br i1 %92, label %93, label %104, !dbg !7111

93:                                               ; preds = %85
  %94 = getelementptr inbounds nuw %"class.std::__1::ostreambuf_iterator", ptr %8, i32 0, i32 0, !dbg !7112
  %95 = load ptr, ptr %94, align 8, !dbg !7112
  %96 = load ptr, ptr %10, align 8, !dbg !7115
  %97 = load i64, ptr %16, align 8, !dbg !7116
  %98 = call noundef i64 @_ZNSt3__115basic_streambufIcNS_11char_traitsIcEEE5sputnB8ne210000EPKcl(ptr noundef nonnull align 8 dereferenceable(64) %95, ptr noundef %96, i64 noundef %97), !dbg !7117
  %99 = load i64, ptr %16, align 8, !dbg !7118
  %100 = icmp ne i64 %98, %99, !dbg !7119
  br i1 %100, label %101, label %103, !dbg !7119

101:                                              ; preds = %93
  %102 = getelementptr inbounds nuw %"class.std::__1::ostreambuf_iterator", ptr %8, i32 0, i32 0, !dbg !7120
  store ptr null, ptr %102, align 8, !dbg !7122
  call void @llvm.memcpy.p0.p0.i64(ptr align 8 %7, ptr align 8 %8, i64 8, i1 false), !dbg !7123
  br label %107, !dbg !7124

103:                                              ; preds = %93
  br label %104, !dbg !7125

104:                                              ; preds = %103, %85
  %105 = load ptr, ptr %12, align 8, !dbg !7126, !nonnull !103, !align !5989
  %106 = call noundef i64 @_ZNSt3__18ios_base5widthB8ne210000El(ptr noundef nonnull align 8 dereferenceable(136) %105, i64 noundef 0), !dbg !7127
  call void @llvm.memcpy.p0.p0.i64(ptr align 8 %7, ptr align 8 %8, i64 8, i1 false), !dbg !7128
  br label %107, !dbg !7129

107:                                              ; preds = %104, %101, %82, %58, %25
  %108 = getelementptr inbounds nuw %"class.std::__1::ostreambuf_iterator", ptr %7, i32 0, i32 0, !dbg !7130
  %109 = load ptr, ptr %108, align 8, !dbg !7130
  ret ptr %109, !dbg !7130

110:                                              ; preds = %77
  %111 = load ptr, ptr %18, align 8, !dbg !7103
  %112 = load i32, ptr %19, align 4, !dbg !7103
  %113 = insertvalue { ptr, i32 } poison, ptr %111, 0, !dbg !7103
  %114 = insertvalue { ptr, i32 } %113, i32 %112, 1, !dbg !7103
  resume { ptr, i32 } %114, !dbg !7103

115:                                              ; preds = %82
  unreachable
}

; Function Attrs: mustprogress noinline nounwind optnone uwtable
define linkonce_odr hidden void @_ZNSt3__119ostreambuf_iteratorIcNS_11char_traitsIcEEEC2B8ne210000ERNS_13basic_ostreamIcS2_EE(ptr noundef nonnull align 8 dereferenceable(8) %0, ptr noundef nonnull align 8 dereferenceable(8) %1) unnamed_addr #4 comdat align 2 personality ptr @__gxx_personality_v0 !dbg !7131 {
  %3 = alloca ptr, align 8
  %4 = alloca ptr, align 8
  store ptr %0, ptr %3, align 8
    #dbg_declare(ptr %3, !7132, !DIExpression(), !7134)
  store ptr %1, ptr %4, align 8
    #dbg_declare(ptr %4, !7135, !DIExpression(), !7136)
  %5 = load ptr, ptr %3, align 8
  %6 = getelementptr inbounds nuw %"class.std::__1::ostreambuf_iterator", ptr %5, i32 0, i32 0, !dbg !7137
  %7 = load ptr, ptr %4, align 8, !dbg !7138, !nonnull !103, !align !5989
  %8 = load ptr, ptr %7, align 8, !dbg !7138
  %9 = getelementptr i8, ptr %8, i64 -24, !dbg !7138
  %10 = load i64, ptr %9, align 8, !dbg !7138
  %11 = getelementptr inbounds i8, ptr %7, i64 %10, !dbg !7138
  %12 = invoke noundef ptr @_ZNKSt3__19basic_iosIcNS_11char_traitsIcEEE5rdbufB8ne210000Ev(ptr noundef nonnull align 8 dereferenceable(148) %11)
          to label %13 unwind label %14, !dbg !7139

13:                                               ; preds = %2
  store ptr %12, ptr %6, align 8, !dbg !7137
  ret void, !dbg !7140

14:                                               ; preds = %2
  %15 = landingpad { ptr, i32 }
          catch ptr null, !dbg !7139
  %16 = extractvalue { ptr, i32 } %15, 0, !dbg !7139
  call void @__clang_call_terminate(ptr %16) #18, !dbg !7139
  unreachable, !dbg !7139
}

; Function Attrs: mustprogress noinline nounwind optnone uwtable
define linkonce_odr hidden noundef i32 @_ZNKSt3__18ios_base5flagsB8ne210000Ev(ptr noundef nonnull align 8 dereferenceable(136) %0) #4 comdat align 2 !dbg !7141 {
  %2 = alloca ptr, align 8
  store ptr %0, ptr %2, align 8
    #dbg_declare(ptr %2, !7148, !DIExpression(), !7150)
  %3 = load ptr, ptr %2, align 8
  %4 = getelementptr inbounds nuw %"class.std::__1::ios_base", ptr %3, i32 0, i32 1, !dbg !7151
  %5 = load i32, ptr %4, align 8, !dbg !7151
  ret i32 %5, !dbg !7152
}

; Function Attrs: mustprogress noinline optnone uwtable
define linkonce_odr hidden noundef signext i8 @_ZNKSt3__19basic_iosIcNS_11char_traitsIcEEE4fillB8ne210000Ev(ptr noundef nonnull align 8 dereferenceable(148) %0) #1 comdat align 2 !dbg !7153 {
  %2 = alloca ptr, align 8
  store ptr %0, ptr %2, align 8
    #dbg_declare(ptr %2, !7161, !DIExpression(), !7163)
  %3 = load ptr, ptr %2, align 8
  %4 = getelementptr inbounds nuw %"class.std::__1::basic_ios", ptr %3, i32 0, i32 2, !dbg !7164
  %5 = call noundef zeroext i1 @_ZNKSt3__118_SentinelValueFillINS_11char_traitsIcEEE8__is_setB8ne210000Ev(ptr noundef nonnull align 1 dereferenceable(4) %4), !dbg !7166
  br i1 %5, label %11, label %6, !dbg !7167

6:                                                ; preds = %1
  %7 = call noundef signext i8 @_ZNKSt3__19basic_iosIcNS_11char_traitsIcEEE5widenB8ne210000Ec(ptr noundef nonnull align 8 dereferenceable(148) %3, i8 noundef signext 32), !dbg !7168
  %8 = sext i8 %7 to i32, !dbg !7168
  %9 = getelementptr inbounds nuw %"class.std::__1::basic_ios", ptr %3, i32 0, i32 2, !dbg !7169
  %10 = call noundef nonnull align 1 dereferenceable(4) ptr @_ZNSt3__118_SentinelValueFillINS_11char_traitsIcEEEaSB8ne210000Ei(ptr noundef nonnull align 1 dereferenceable(4) %9, i32 noundef %8), !dbg !7170
  br label %11, !dbg !7169

11:                                               ; preds = %6, %1
  %12 = getelementptr inbounds nuw %"class.std::__1::basic_ios", ptr %3, i32 0, i32 2, !dbg !7171
  %13 = call noundef i32 @_ZNKSt3__118_SentinelValueFillINS_11char_traitsIcEEE5__getB8ne210000Ev(ptr noundef nonnull align 1 dereferenceable(4) %12), !dbg !7172
  %14 = trunc i32 %13 to i8, !dbg !7171
  ret i8 %14, !dbg !7173
}

; Function Attrs: mustprogress noinline nounwind optnone uwtable
define linkonce_odr hidden noundef zeroext i1 @_ZNKSt3__119ostreambuf_iteratorIcNS_11char_traitsIcEEE6failedB8ne210000Ev(ptr noundef nonnull align 8 dereferenceable(8) %0) #4 comdat align 2 !dbg !7174 {
  %2 = alloca ptr, align 8
  store ptr %0, ptr %2, align 8
    #dbg_declare(ptr %2, !7175, !DIExpression(), !7177)
  %3 = load ptr, ptr %2, align 8
  %4 = getelementptr inbounds nuw %"class.std::__1::ostreambuf_iterator", ptr %3, i32 0, i32 0, !dbg !7178
  %5 = load ptr, ptr %4, align 8, !dbg !7178
  %6 = icmp eq ptr %5, null, !dbg !7179
  ret i1 %6, !dbg !7180
}

; Function Attrs: mustprogress noinline optnone uwtable
define linkonce_odr hidden void @_ZNSt3__19basic_iosIcNS_11char_traitsIcEEE8setstateB8ne210000Ej(ptr noundef nonnull align 8 dereferenceable(148) %0, i32 noundef %1) #1 comdat align 2 !dbg !7181 {
  %3 = alloca ptr, align 8
  %4 = alloca i32, align 4
  store ptr %0, ptr %3, align 8
    #dbg_declare(ptr %3, !7187, !DIExpression(), !7189)
  store i32 %1, ptr %4, align 4
    #dbg_declare(ptr %4, !7190, !DIExpression(), !7191)
  %5 = load ptr, ptr %3, align 8
  %6 = load i32, ptr %4, align 4, !dbg !7192
  call void @_ZNSt3__18ios_base8setstateB8ne210000Ej(ptr noundef nonnull align 8 dereferenceable(136) %5, i32 noundef %6), !dbg !7193
  ret void, !dbg !7194
}

; Function Attrs: nounwind
declare void @_ZNSt3__113basic_ostreamIcNS_11char_traitsIcEEE6sentryD1Ev(ptr noundef nonnull align 8 dereferenceable(16)) unnamed_addr #2

declare void @_ZNSt3__18ios_base33__set_badbit_and_consider_rethrowEv(ptr noundef nonnull align 8 dereferenceable(136)) #7

; Function Attrs: nocallback nofree nounwind willreturn memory(argmem: readwrite)
declare void @llvm.memcpy.p0.p0.i64(ptr noalias writeonly captures(none), ptr noalias readonly captures(none), i64, i1 immarg) #13

; Function Attrs: mustprogress noinline nounwind optnone uwtable
define linkonce_odr hidden noundef i64 @_ZNKSt3__18ios_base5widthB8ne210000Ev(ptr noundef nonnull align 8 dereferenceable(136) %0) #4 comdat align 2 !dbg !7195 {
  %2 = alloca ptr, align 8
  store ptr %0, ptr %2, align 8
    #dbg_declare(ptr %2, !7199, !DIExpression(), !7200)
  %3 = load ptr, ptr %2, align 8
  %4 = getelementptr inbounds nuw %"class.std::__1::ios_base", ptr %3, i32 0, i32 3, !dbg !7201
  %5 = load i64, ptr %4, align 8, !dbg !7201
  ret i64 %5, !dbg !7202
}

; Function Attrs: mustprogress noinline optnone uwtable
define linkonce_odr hidden noundef i64 @_ZNSt3__115basic_streambufIcNS_11char_traitsIcEEE5sputnB8ne210000EPKcl(ptr noundef nonnull align 8 dereferenceable(64) %0, ptr noundef %1, i64 noundef %2) #1 comdat align 2 !dbg !7203 {
  %4 = alloca ptr, align 8
  %5 = alloca ptr, align 8
  %6 = alloca i64, align 8
  store ptr %0, ptr %4, align 8
    #dbg_declare(ptr %4, !7211, !DIExpression(), !7212)
  store ptr %1, ptr %5, align 8
    #dbg_declare(ptr %5, !7213, !DIExpression(), !7214)
  store i64 %2, ptr %6, align 8
    #dbg_declare(ptr %6, !7215, !DIExpression(), !7216)
  %7 = load ptr, ptr %4, align 8
  %8 = load ptr, ptr %5, align 8, !dbg !7217
  %9 = load i64, ptr %6, align 8, !dbg !7218
  %10 = load ptr, ptr %7, align 8, !dbg !7219
  %11 = getelementptr inbounds ptr, ptr %10, i64 12, !dbg !7219
  %12 = load ptr, ptr %11, align 8, !dbg !7219
  %13 = call noundef i64 %12(ptr noundef nonnull align 8 dereferenceable(64) %7, ptr noundef %8, i64 noundef %9), !dbg !7219
  ret i64 %13, !dbg !7220
}

; Function Attrs: mustprogress noinline optnone uwtable
define linkonce_odr hidden void @_ZNSt3__112basic_stringIcNS_11char_traitsIcEENS_9allocatorIcEEEC2B8ne210000Emc(ptr noundef nonnull align 8 dereferenceable(24) %0, i64 noundef %1, i8 noundef signext %2) unnamed_addr #1 comdat align 2 !dbg !7221 {
  %4 = alloca ptr, align 8
  %5 = alloca i64, align 8
  %6 = alloca i8, align 1
  store ptr %0, ptr %4, align 8
    #dbg_declare(ptr %4, !7222, !DIExpression(), !7223)
  store i64 %1, ptr %5, align 8
    #dbg_declare(ptr %5, !7224, !DIExpression(), !7225)
  store i8 %2, ptr %6, align 1
    #dbg_declare(ptr %6, !7226, !DIExpression(), !7227)
  %7 = load ptr, ptr %4, align 8
  %8 = getelementptr inbounds nuw %"class.std::__1::basic_string", ptr %7, i32 0, i32 0, !dbg !7228
  call void @_ZNSt3__19allocatorIcEC2B8ne210000Ev(ptr noundef nonnull align 1 dereferenceable(1) %7) #3, !dbg !7228
  %9 = load i64, ptr %5, align 8, !dbg !7229
  %10 = load i8, ptr %6, align 1, !dbg !7231
  call void @_ZNSt3__112basic_stringIcNS_11char_traitsIcEENS_9allocatorIcEEE6__initEmc(ptr noundef nonnull align 8 dereferenceable(24) %7, i64 noundef %9, i8 noundef signext %10), !dbg !7232
  ret void, !dbg !7233
}

; Function Attrs: mustprogress noinline nounwind optnone uwtable
define linkonce_odr hidden noundef ptr @_ZNSt3__112basic_stringIcNS_11char_traitsIcEENS_9allocatorIcEEE4dataB8ne210000Ev(ptr noundef nonnull align 8 dereferenceable(24) %0) #4 comdat align 2 !dbg !7234 {
  %2 = alloca ptr, align 8
  store ptr %0, ptr %2, align 8
    #dbg_declare(ptr %2, !7235, !DIExpression(), !7236)
  %3 = load ptr, ptr %2, align 8
  %4 = call noundef ptr @_ZNSt3__112basic_stringIcNS_11char_traitsIcEENS_9allocatorIcEEE13__get_pointerB8ne210000Ev(ptr noundef nonnull align 8 dereferenceable(24) %3) #3, !dbg !7237
  %5 = call noundef ptr @_ZNSt3__112__to_addressB8ne210000IcEEPT_S2_(ptr noundef %4) #3, !dbg !7238
  ret ptr %5, !dbg !7239
}

; Function Attrs: mustprogress noinline nounwind optnone uwtable
define linkonce_odr hidden noundef i64 @_ZNSt3__18ios_base5widthB8ne210000El(ptr noundef nonnull align 8 dereferenceable(136) %0, i64 noundef %1) #4 comdat align 2 !dbg !7240 {
  %3 = alloca ptr, align 8
  %4 = alloca i64, align 8
  %5 = alloca i64, align 8
  store ptr %0, ptr %3, align 8
    #dbg_declare(ptr %3, !7245, !DIExpression(), !7247)
  store i64 %1, ptr %4, align 8
    #dbg_declare(ptr %4, !7248, !DIExpression(), !7249)
  %6 = load ptr, ptr %3, align 8
    #dbg_declare(ptr %5, !7250, !DIExpression(), !7251)
  %7 = getelementptr inbounds nuw %"class.std::__1::ios_base", ptr %6, i32 0, i32 3, !dbg !7252
  %8 = load i64, ptr %7, align 8, !dbg !7252
  store i64 %8, ptr %5, align 8, !dbg !7251
  %9 = load i64, ptr %4, align 8, !dbg !7253
  %10 = getelementptr inbounds nuw %"class.std::__1::ios_base", ptr %6, i32 0, i32 3, !dbg !7254
  store i64 %9, ptr %10, align 8, !dbg !7255
  %11 = load i64, ptr %5, align 8, !dbg !7256
  ret i64 %11, !dbg !7257
}

declare void @_ZNSt3__112basic_stringIcNS_11char_traitsIcEENS_9allocatorIcEEE6__initEmc(ptr noundef nonnull align 8 dereferenceable(24), i64 noundef, i8 noundef signext) #7

; Function Attrs: mustprogress noinline nounwind optnone uwtable
define linkonce_odr hidden noundef ptr @_ZNSt3__112__to_addressB8ne210000IcEEPT_S2_(ptr noundef %0) #4 comdat !dbg !7258 {
  %2 = alloca ptr, align 8
  store ptr %0, ptr %2, align 8
    #dbg_declare(ptr %2, !7260, !DIExpression(), !7261)
  %3 = load ptr, ptr %2, align 8, !dbg !7262
  ret ptr %3, !dbg !7263
}

; Function Attrs: mustprogress noinline nounwind optnone uwtable
define linkonce_odr hidden noundef ptr @_ZNSt3__112basic_stringIcNS_11char_traitsIcEENS_9allocatorIcEEE13__get_pointerB8ne210000Ev(ptr noundef nonnull align 8 dereferenceable(24) %0) #4 comdat align 2 !dbg !7264 {
  %2 = alloca ptr, align 8
  store ptr %0, ptr %2, align 8
    #dbg_declare(ptr %2, !7265, !DIExpression(), !7266)
  %3 = load ptr, ptr %2, align 8
  %4 = call noundef zeroext i1 @_ZNKSt3__112basic_stringIcNS_11char_traitsIcEENS_9allocatorIcEEE9__is_longB8ne210000Ev(ptr noundef nonnull align 8 dereferenceable(24) %3) #3, !dbg !7267
  br i1 %4, label %5, label %7, !dbg !7267

5:                                                ; preds = %1
  %6 = call noundef ptr @_ZNSt3__112basic_stringIcNS_11char_traitsIcEENS_9allocatorIcEEE18__get_long_pointerB8ne210000Ev(ptr noundef nonnull align 8 dereferenceable(24) %3) #3, !dbg !7268
  br label %9, !dbg !7267

7:                                                ; preds = %1
  %8 = call noundef ptr @_ZNSt3__112basic_stringIcNS_11char_traitsIcEENS_9allocatorIcEEE19__get_short_pointerB8ne210000Ev(ptr noundef nonnull align 8 dereferenceable(24) %3) #3, !dbg !7269
  br label %9, !dbg !7267

9:                                                ; preds = %7, %5
  %10 = phi ptr [ %6, %5 ], [ %8, %7 ], !dbg !7267
  ret ptr %10, !dbg !7270
}

; Function Attrs: mustprogress noinline nounwind optnone uwtable
define linkonce_odr hidden noundef zeroext i1 @_ZNKSt3__112basic_stringIcNS_11char_traitsIcEENS_9allocatorIcEEE9__is_longB8ne210000Ev(ptr noundef nonnull align 8 dereferenceable(24) %0) #4 comdat align 2 !dbg !7271 {
  %2 = alloca ptr, align 8
  store ptr %0, ptr %2, align 8
    #dbg_declare(ptr %2, !7272, !DIExpression(), !7273)
  %3 = load ptr, ptr %2, align 8
  %4 = getelementptr inbounds nuw %"class.std::__1::basic_string", ptr %3, i32 0, i32 0, !dbg !7274
  %5 = getelementptr inbounds nuw %"struct.std::__1::basic_string<char>::__short", ptr %4, i32 0, i32 0, !dbg !7275
  %6 = load i8, ptr %5, align 8, !dbg !7275
  %7 = and i8 %6, 1, !dbg !7275
  %8 = icmp ne i8 %7, 0, !dbg !7274
  ret i1 %8, !dbg !7276
}

; Function Attrs: mustprogress noinline nounwind optnone uwtable
define linkonce_odr hidden noundef ptr @_ZNSt3__112basic_stringIcNS_11char_traitsIcEENS_9allocatorIcEEE18__get_long_pointerB8ne210000Ev(ptr noundef nonnull align 8 dereferenceable(24) %0) #4 comdat align 2 !dbg !7277 {
  %2 = alloca ptr, align 8
  store ptr %0, ptr %2, align 8
    #dbg_declare(ptr %2, !7278, !DIExpression(), !7279)
  %3 = load ptr, ptr %2, align 8
  %4 = getelementptr inbounds nuw %"class.std::__1::basic_string", ptr %3, i32 0, i32 0, !dbg !7280
  %5 = getelementptr inbounds nuw %"struct.std::__1::basic_string<char>::__long", ptr %4, i32 0, i32 2, !dbg !7280
  %6 = load ptr, ptr %5, align 8, !dbg !7280
  ret ptr %6, !dbg !7281
}

; Function Attrs: mustprogress noinline nounwind optnone uwtable
define linkonce_odr hidden noundef ptr @_ZNSt3__112basic_stringIcNS_11char_traitsIcEENS_9allocatorIcEEE19__get_short_pointerB8ne210000Ev(ptr noundef nonnull align 8 dereferenceable(24) %0) #4 comdat align 2 !dbg !7282 {
  %2 = alloca ptr, align 8
  store ptr %0, ptr %2, align 8
    #dbg_declare(ptr %2, !7283, !DIExpression(), !7284)
  %3 = load ptr, ptr %2, align 8
  %4 = getelementptr inbounds nuw %"class.std::__1::basic_string", ptr %3, i32 0, i32 0, !dbg !7285
  %5 = getelementptr inbounds nuw %"struct.std::__1::basic_string<char>::__short", ptr %4, i32 0, i32 1, !dbg !7285
  %6 = getelementptr inbounds [23 x i8], ptr %5, i64 0, i64 0, !dbg !7285
  %7 = call noundef ptr @_ZNSt3__114pointer_traitsIPcE10pointer_toB8ne210000ERc(ptr noundef nonnull align 1 dereferenceable(1) %6) #3, !dbg !7285
  ret ptr %7, !dbg !7286
}

; Function Attrs: mustprogress noinline nounwind optnone uwtable
define linkonce_odr hidden noundef ptr @_ZNSt3__114pointer_traitsIPcE10pointer_toB8ne210000ERc(ptr noundef nonnull align 1 dereferenceable(1) %0) #4 comdat align 2 !dbg !7287 {
  %2 = alloca ptr, align 8
  store ptr %0, ptr %2, align 8
    #dbg_declare(ptr %2, !7296, !DIExpression(), !7297)
  %3 = load ptr, ptr %2, align 8, !dbg !7298, !nonnull !103
  ret ptr %3, !dbg !7299
}

; Function Attrs: mustprogress noinline optnone uwtable
define linkonce_odr hidden noundef ptr @_ZNKSt3__19basic_iosIcNS_11char_traitsIcEEE5rdbufB8ne210000Ev(ptr noundef nonnull align 8 dereferenceable(148) %0) #1 comdat align 2 !dbg !7300 {
  %2 = alloca ptr, align 8
  store ptr %0, ptr %2, align 8
    #dbg_declare(ptr %2, !7304, !DIExpression(), !7305)
  %3 = load ptr, ptr %2, align 8
  %4 = call noundef ptr @_ZNKSt3__18ios_base5rdbufB8ne210000Ev(ptr noundef nonnull align 8 dereferenceable(136) %3), !dbg !7306
  ret ptr %4, !dbg !7307
}

; Function Attrs: mustprogress noinline nounwind optnone uwtable
define linkonce_odr hidden noundef ptr @_ZNKSt3__18ios_base5rdbufB8ne210000Ev(ptr noundef nonnull align 8 dereferenceable(136) %0) #4 comdat align 2 !dbg !7308 {
  %2 = alloca ptr, align 8
  store ptr %0, ptr %2, align 8
    #dbg_declare(ptr %2, !7312, !DIExpression(), !7313)
  %3 = load ptr, ptr %2, align 8
  %4 = getelementptr inbounds nuw %"class.std::__1::ios_base", ptr %3, i32 0, i32 6, !dbg !7314
  %5 = load ptr, ptr %4, align 8, !dbg !7314
  ret ptr %5, !dbg !7315
}

; Function Attrs: mustprogress noinline nounwind optnone uwtable
define linkonce_odr hidden noundef zeroext i1 @_ZNKSt3__118_SentinelValueFillINS_11char_traitsIcEEE8__is_setB8ne210000Ev(ptr noundef nonnull align 1 dereferenceable(4) %0) #4 comdat align 2 !dbg !7316 {
  %2 = alloca ptr, align 8
  store ptr %0, ptr %2, align 8
    #dbg_declare(ptr %2, !7336, !DIExpression(), !7338)
  %3 = load ptr, ptr %2, align 8
  %4 = getelementptr inbounds nuw %"struct.std::__1::_SentinelValueFill", ptr %3, i32 0, i32 0, !dbg !7339
  %5 = load i32, ptr %4, align 1, !dbg !7339
  %6 = call noundef i32 @_ZNSt3__111char_traitsIcE3eofB8ne210000Ev() #3, !dbg !7340
  %7 = icmp ne i32 %5, %6, !dbg !7341
  ret i1 %7, !dbg !7342
}

; Function Attrs: mustprogress noinline optnone uwtable
define linkonce_odr hidden noundef signext i8 @_ZNKSt3__19basic_iosIcNS_11char_traitsIcEEE5widenB8ne210000Ec(ptr noundef nonnull align 8 dereferenceable(148) %0, i8 noundef signext %1) #1 comdat align 2 personality ptr @__gxx_personality_v0 !dbg !7343 {
  %3 = alloca ptr, align 8
  %4 = alloca i8, align 1
  %5 = alloca %"class.std::__1::locale", align 8
  %6 = alloca ptr, align 8
  %7 = alloca i32, align 4
  store ptr %0, ptr %3, align 8
    #dbg_declare(ptr %3, !7347, !DIExpression(), !7348)
  store i8 %1, ptr %4, align 1
    #dbg_declare(ptr %4, !7349, !DIExpression(), !7350)
  %8 = load ptr, ptr %3, align 8
  call void @_ZNKSt3__18ios_base6getlocEv(ptr dead_on_unwind writable sret(%"class.std::__1::locale") align 8 %5, ptr noundef nonnull align 8 dereferenceable(136) %8), !dbg !7351
  %9 = invoke noundef nonnull align 8 dereferenceable(25) ptr @_ZNSt3__19use_facetB8ne210000INS_5ctypeIcEEEERKT_RKNS_6localeE(ptr noundef nonnull align 8 dereferenceable(8) %5)
          to label %10 unwind label %14, !dbg !7352

10:                                               ; preds = %2
  %11 = load i8, ptr %4, align 1, !dbg !7353
